ccopy_reg
_reconstructor
p1
(cmarketObjects
portfolio
p2
c__builtin__
object
p3
NtRp4
(dp5
S'stocks'
p6
(lp7
g1
(cmarketObjects
stock
p8
g3
NtRp9
(dp10
S'last'
p11
I0
sS'subscrIndex'
p12
I0
sS'subscribed'
p13
I00
sS'secType'
p14
S'STK'
p15
sS'industry'
p16
S'Technology'
p17
sS'contract'
p18
g1
(cib.ext.Contract
Contract
p19
g3
NtRp20
(dp21
S'm_tradingClass'
p22
S'NMS'
p23
sS'm_conId'
p24
I265598
sS'm_symbol'
p25
S'AAPL'
p26
sS'm_secType'
p27
S'STK'
p28
sS'm_includeExpired'
p29
I00
sS'm_multiplier'
p30
NsS'm_primaryExch'
p31
S'NASDAQ'
p32
sS'm_right'
p33
NsS'm_expiry'
p34
NsS'm_currency'
p35
S'USD'
p36
sS'm_localSymbol'
p37
S'AAPL'
p38
sS'm_exchange'
p39
S'SMART'
p40
sS'm_strike'
p41
F0
sbsS'options'
p42
(lp43
g1
(cmarketObjects
option
p44
g3
NtRp45
(dp46
S'impliedVolatility'
p47
I0
sg11
I0
sS'expectedValue'
p48
I0
sg13
I00
sg14
S'OPT'
p49
sS'annualizedReturn'
p50
I0
sS'symbol'
p51
S'AAPL'
p52
sS'optType'
p53
S'PUT'
p54
sg18
g20
sS'expiry'
p55
NsS'ask'
p56
I0
sS'underlying'
p57
g9
sS'maintenance'
p58
I0
sS'close'
p59
I0
sS'strike'
p60
F0
sS'position'
p61
I0
sS'bid'
p62
I0
sg12
I-1
sbag45
asg51
S'AAPL'
p63
sg59
I0
sg56
I0
sg61
I0
sS'historicalData'
p64
(lp65
sg62
I0
sS'subscription'
p66
I01
sbag1
(g8
g3
NtRp67
(dp68
g11
I0
sg12
I1
sg13
I00
sg14
g15
sg16
S'Communications'
p69
sg18
g1
(g19
g3
NtRp70
(dp71
g22
S'NMS'
p72
sg24
I15124833
sg25
S'NFLX'
p73
sg27
S'STK'
p74
sg29
I00
sg30
Nsg31
S'NASDAQ'
p75
sg33
Nsg34
Nsg35
S'USD'
p76
sg37
S'NFLX'
p77
sg39
S'SMART'
p78
sg41
F0
sbsg42
(lp79
g1
(g44
g3
NtRp80
(dp81
g47
I0
sg11
I0
sg48
I0
sg13
I00
sg14
g49
sg50
I0
sg51
S'NFLX'
p82
sg53
g54
sg18
g70
sg55
Nsg56
I0
sg57
g67
sg58
I0
sg59
I0
sg60
F0
sg61
I0
sg62
I0
sg12
I-1
sbag80
asg51
S'NFLX'
p83
sg59
I0
sg56
I0
sg61
I0
sg64
(lp84
sg62
I0
sg66
I01
sbag1
(g8
g3
NtRp85
(dp86
g11
I0
sg12
I2
sg13
I00
sg14
g15
sg16
S'Consumer, Cyclical'
p87
sg18
g1
(g19
g3
NtRp88
(dp89
g22
S'NKE'
p90
sg24
I10291
sg25
S'NKE'
p91
sg27
S'STK'
p92
sg29
I00
sg30
Nsg31
S'NYSE'
p93
sg33
Nsg34
Nsg35
S'USD'
p94
sg37
S'NKE'
p95
sg39
S'SMART'
p96
sg41
F0
sbsg42
(lp97
g1
(g44
g3
NtRp98
(dp99
g47
I0
sg11
I0
sg48
I0
sg13
I00
sg14
g49
sg50
I0
sg51
S'NKE'
p100
sg53
g54
sg18
g88
sg55
Nsg56
I0
sg57
g85
sg58
I0
sg59
I0
sg60
F0
sg61
I0
sg62
I0
sg12
I-1
sbag98
asg51
S'NKE'
p101
sg59
I0
sg56
I0
sg61
I0
sg64
(lp102
sg62
I0
sg66
I01
sbag1
(g8
g3
NtRp103
(dp104
g11
I0
sg12
I3
sg13
I00
sg14
g15
sg16
S'Financial'
p105
sg18
g1
(g19
g3
NtRp106
(dp107
g22
S'COF'
p108
sg24
I5941
sg25
S'COF'
p109
sg27
S'STK'
p110
sg29
I00
sg30
Nsg31
S'NYSE'
p111
sg33
Nsg34
Nsg35
S'USD'
p112
sg37
S'COF'
p113
sg39
S'SMART'
p114
sg41
F0
sbsg42
(lp115
g1
(g44
g3
NtRp116
(dp117
g47
I0
sg11
I0
sg48
I0
sg13
I00
sg14
g49
sg50
I0
sg51
S'COF'
p118
sg53
g54
sg18
g106
sg55
Nsg56
I0
sg57
g103
sg58
I0
sg59
I0
sg60
F0
sg61
I0
sg62
I0
sg12
I-1
sbag116
asg51
S'COF'
p119
sg59
I0
sg56
I0
sg61
I0
sg64
(lp120
sg62
I0
sg66
I01
sbag1
(g8
g3
NtRp121
(dp122
g11
I0
sg12
I4
sg13
I00
sg14
g15
sg16
S'Consumer, Cyclical'
p123
sg18
g1
(g19
g3
NtRp124
(dp125
g22
S'NMS'
p126
sg24
I76792991
sg25
S'TSLA'
p127
sg27
S'STK'
p128
sg29
I00
sg30
Nsg31
S'NASDAQ'
p129
sg33
Nsg34
Nsg35
S'USD'
p130
sg37
S'TSLA'
p131
sg39
S'SMART'
p132
sg41
F0
sbsg42
(lp133
g1
(g44
g3
NtRp134
(dp135
g47
I0
sg11
I0
sg48
I0
sg13
I00
sg14
g49
sg50
I0
sg51
S'TSLA'
p136
sg53
g54
sg18
g124
sg55
Nsg56
I0
sg57
g121
sg58
I0
sg59
I0
sg60
F0
sg61
I0
sg62
I0
sg12
I-1
sbag134
asg51
S'TSLA'
p137
sg59
I0
sg56
I0
sg61
I0
sg64
(lp138
sg62
I0
sg66
I01
sbag1
(g8
g3
NtRp139
(dp140
g11
I0
sg12
I5
sg13
I00
sg14
g15
sg16
S'Consumer, Non-cyclical'
p141
sg18
g1
(g19
g3
NtRp142
(dp143
g22
S'GSK'
p144
sg24
I7656
sg25
S'GSK'
p145
sg27
S'STK'
p146
sg29
I00
sg30
Nsg31
S'NYSE'
p147
sg33
Nsg34
Nsg35
S'USD'
p148
sg37
S'GSK'
p149
sg39
S'SMART'
p150
sg41
F0
sbsg42
(lp151
g1
(g44
g3
NtRp152
(dp153
g47
I0
sg11
I0
sg48
I0
sg13
I00
sg14
g49
sg50
I0
sg51
S'GSK'
p154
sg53
g54
sg18
g142
sg55
Nsg56
I0
sg57
g139
sg58
I0
sg59
I0
sg60
F0
sg61
I0
sg62
I0
sg12
I-1
sbag152
asg51
S'GSK'
p155
sg59
I0
sg56
I0
sg61
I0
sg64
(lp156
sg62
I0
sg66
I01
sbag1
(g8
g3
NtRp157
(dp158
g11
I0
sg12
I6
sg13
I00
sg14
g15
sg16
S'Financial'
p159
sg18
g1
(g19
g3
NtRp160
(dp161
g22
S'BAC'
p162
sg24
I10098
sg25
S'BAC'
p163
sg27
S'STK'
p164
sg29
I00
sg30
Nsg31
S'NYSE'
p165
sg33
Nsg34
Nsg35
S'USD'
p166
sg37
S'BAC'
p167
sg39
S'SMART'
p168
sg41
F0
sbsg42
(lp169
g1
(g44
g3
NtRp170
(dp171
g47
I0
sg11
I0
sg48
I0
sg13
I00
sg14
g49
sg50
I0
sg51
S'BAC'
p172
sg53
g54
sg18
g160
sg55
Nsg56
I0
sg57
g157
sg58
I0
sg59
I0
sg60
F0
sg61
I0
sg62
I0
sg12
I-1
sbag170
asg51
S'BAC'
p173
sg59
I0
sg56
I0
sg61
I0
sg64
(lp174
sg62
I0
sg66
I01
sbag1
(g8
g3
NtRp175
(dp176
g11
I0
sg12
I7
sg13
I00
sg14
g15
sg16
S'Technology'
p177
sg18
g1
(g19
g3
NtRp178
(dp179
g22
S'NMS'
p180
sg24
I272093
sg25
S'MSFT'
p181
sg27
S'STK'
p182
sg29
I00
sg30
Nsg31
S'NASDAQ'
p183
sg33
Nsg34
Nsg35
S'USD'
p184
sg37
S'MSFT'
p185
sg39
S'SMART'
p186
sg41
F0
sbsg42
(lp187
g1
(g44
g3
NtRp188
(dp189
g47
I0
sg11
I0
sg48
I0
sg13
I00
sg14
g49
sg50
I0
sg51
S'MSFT'
p190
sg53
g54
sg18
g178
sg55
Nsg56
I0
sg57
g175
sg58
I0
sg59
I0
sg60
F0
sg61
I0
sg62
I0
sg12
I-1
sbag188
asg51
S'MSFT'
p191
sg59
I0
sg56
I0
sg61
I0
sg64
(lp192
sg62
I0
sg66
I01
sbag1
(g8
g3
NtRp193
(dp194
g11
I0
sg12
I8
sg13
I00
sg14
g15
sg16
S'Industrial'
p195
sg18
g1
(g19
g3
NtRp196
(dp197
g22
S'CAT'
p198
sg24
I5437
sg25
S'CAT'
p199
sg27
S'STK'
p200
sg29
I00
sg30
Nsg31
S'NYSE'
p201
sg33
Nsg34
Nsg35
S'USD'
p202
sg37
S'CAT'
p203
sg39
S'SMART'
p204
sg41
F0
sbsg42
(lp205
g1
(g44
g3
NtRp206
(dp207
g47
I0
sg11
I0
sg48
I0
sg13
I00
sg14
g49
sg50
I0
sg51
S'CAT'
p208
sg53
g54
sg18
g196
sg55
Nsg56
I0
sg57
g193
sg58
I0
sg59
I0
sg60
F0
sg61
I0
sg62
I0
sg12
I-1
sbag206
asg51
S'CAT'
p209
sg59
I0
sg56
I0
sg61
I0
sg64
(lp210
sg62
I0
sg66
I01
sbag1
(g8
g3
NtRp211
(dp212
g11
I0
sg12
I9
sg13
I00
sg14
g15
sg16
S'Financial'
p213
sg18
g1
(g19
g3
NtRp214
(dp215
g22
S'AXP'
p216
sg24
I4721
sg25
S'AXP'
p217
sg27
S'STK'
p218
sg29
I00
sg30
Nsg31
S'NYSE'
p219
sg33
Nsg34
Nsg35
S'USD'
p220
sg37
S'AXP'
p221
sg39
S'SMART'
p222
sg41
F0
sbsg42
(lp223
g1
(g44
g3
NtRp224
(dp225
g47
I0
sg11
I0
sg48
I0
sg13
I00
sg14
g49
sg50
I0
sg51
S'AXP'
p226
sg53
g54
sg18
g214
sg55
Nsg56
I0
sg57
g211
sg58
I0
sg59
I0
sg60
F0
sg61
I0
sg62
I0
sg12
I-1
sbag224
asg51
S'AXP'
p227
sg59
I0
sg56
I0
sg61
I0
sg64
(lp228
sg62
I0
sg66
I01
sbasb.