ccopy_reg
_reconstructor
p1
(cmarketObjects
portfolio
p2
c__builtin__
object
p3
NtRp4
(dp5
S'totalCash'
p6
I0
sS'stockMarketValue'
p7
I0
sS'netLiquidation'
p8
I0
sS'optionMarketValue'
p9
I0
sS'cashBalance'
p10
I0
sS'availableFunds'
p11
I0
sS'realizedPnL'
p12
I0
sS'unrealizedPnL'
p13
I0
sS'openPositions'
p14
(lp15
sS'maintenance'
p16
I-1
sS'promoted'
p17
(lp18
S''
aS''
aS''
asS'stocks'
p19
(lp20
g1
(cmarketObjects
stock
p21
g3
NtRp22
(dp23
g17
S''
sS'last'
p24
F43.469999999999999
sS'target'
p25
(dp26
sS'subscribed'
p27
I00
sS'secType'
p28
S'STK'
p29
sS'industry'
p30
NsS'close'
p31
F42.710000000000001
sS'contract'
p32
g1
(cib.ext.Contract
Contract
p33
g3
NtRp34
(dp35
S'm_conId'
p36
I0
sS'm_right'
p37
S''
sS'm_symbol'
p38
S'GSK'
p39
sS'm_secType'
p40
g29
sS'm_includeExpired'
p41
I00
sS'm_multiplier'
p42
I100
sS'm_expiry'
p43
S''
sS'm_currency'
p44
S'USD'
p45
sS'm_primaryExchange'
p46
S'SMART'
p47
sS'm_exchange'
p48
g47
sS'm_strike'
p49
F0
sbsS'options'
p50
(lp51
sS'symbol'
p52
g39
sS'impliedVolatility'
p53
I0
sS'position'
p54
I0
sS'ask'
p55
F-1
sS'portfolio'
p56
g4
sS'historicalData'
p57
(dp58
S'20160421'
p59
g1
(cmarketObjects
historicalData
p60
g3
NtRp61
(dp62
S'date'
p63
S'20160421'
p64
sg53
g1
(cmarketObjects
dataFormat
p65
g3
NtRp66
(dp67
S'count'
p68
I-1
sS'volume'
p69
I-1
sS'high'
p70
I-1
sS'low'
p71
I-1
sg31
I-1
sS'open'
p72
I-1
sS'WAP'
p73
I-1
sbsS'trades'
p74
g1
(g65
g3
NtRp75
(dp76
g68
I17104
sg69
I29283
sg70
F43.310000000000002
sg71
F42.920000000000002
sg31
F43.149999999999999
sg72
F42.939999999999998
sg73
F43.118499999999997
sbsS'historicalVolatility'
p77
g1
(g65
g3
NtRp78
(dp79
g68
I-1
sg69
I-1
sg70
I-1
sg71
I-1
sg31
I-1
sg72
I-1
sg73
I-1
sbsbsS'20160422'
p80
g1
(g60
g3
NtRp81
(dp82
g63
S'20160422'
p83
sg53
g1
(g65
g3
NtRp84
(dp85
g68
I-1
sg69
I-1
sg70
I-1
sg71
I-1
sg31
I-1
sg72
I-1
sg73
I-1
sbsg74
g1
(g65
g3
NtRp86
(dp87
g68
I12286
sg69
I22134
sg70
F43.130000000000003
sg71
F42.719999999999999
sg31
F43.07
sg72
F43
sg73
F42.9465
sbsg77
g1
(g65
g3
NtRp88
(dp89
g68
I-1
sg69
I-1
sg70
I-1
sg71
I-1
sg31
I-1
sg72
I-1
sg73
I-1
sbsbsS'20160425'
p90
g1
(g60
g3
NtRp91
(dp92
g63
S'20160425'
p93
sg53
g1
(g65
g3
NtRp94
(dp95
g68
I-1
sg69
I-1
sg70
I-1
sg71
I-1
sg31
I-1
sg72
I-1
sg73
I-1
sbsg74
g1
(g65
g3
NtRp96
(dp97
g68
I8506
sg69
I15688
sg70
F43.090000000000003
sg71
F42.850000000000001
sg31
F42.969999999999999
sg72
F43
sg73
F42.954000000000001
sbsg77
g1
(g65
g3
NtRp98
(dp99
g68
I-1
sg69
I-1
sg70
I-1
sg71
I-1
sg31
I-1
sg72
I-1
sg73
I-1
sbsbsS'20160427'
p100
g1
(g60
g3
NtRp101
(dp102
g63
S'20160427'
p103
sg53
g1
(g65
g3
NtRp104
(dp105
g68
I-1
sg69
I-1
sg70
I-1
sg71
I-1
sg31
I-1
sg72
I-1
sg73
I-1
sbsg74
g1
(g65
g3
NtRp106
(dp107
g68
I22564
sg69
I39412
sg70
F43.710000000000001
sg71
F43.229999999999997
sg31
F43.469999999999999
sg72
F43.630000000000003
sg73
F43.487499999999997
sbsg77
g1
(g65
g3
NtRp108
(dp109
g68
I-1
sg69
I-1
sg70
I-1
sg71
I-1
sg31
I-1
sg72
I-1
sg73
I-1
sbsbsS'20160426'
p110
g1
(g60
g3
NtRp111
(dp112
g63
S'20160426'
p113
sg53
g1
(g65
g3
NtRp114
(dp115
g68
I-1
sg69
I-1
sg70
I-1
sg71
I-1
sg31
I-1
sg72
I-1
sg73
I-1
sbsg74
g1
(g65
g3
NtRp116
(dp117
g68
I14864
sg69
I27739
sg70
F42.799999999999997
sg71
F42.530000000000001
sg31
F42.710000000000001
sg72
F42.659999999999997
sg73
F42.695999999999998
sbsg77
g1
(g65
g3
NtRp118
(dp119
g68
I-1
sg69
I-1
sg70
I-1
sg71
I-1
sg31
I-1
sg72
I-1
sg73
I-1
sbsbssS'subscription'
p120
I00
sS'bid'
p121
F-1
sS'subscrIndex'
p122
I0
sbag1
(g21
g3
NtRp123
(dp124
g17
S''
sg24
F66.25
sg25
(dp125
sg27
I00
sg28
g29
sg30
Nsg31
F66.200000000000003
sg32
g1
(g33
g3
NtRp126
(dp127
g36
I0
sg37
S''
sg38
S'AXP'
p128
sg40
g29
sg41
I00
sg42
I100
sg43
S''
sg44
g45
sg46
g47
sg48
g47
sg49
F0
sbsg50
(lp129
sg52
g128
sg53
I0
sg54
I0
sg55
F-1
sg56
g4
sg57
(dp130
S'20160421'
p131
g1
(g60
g3
NtRp132
(dp133
g63
S'20160421'
p134
sg53
g1
(g65
g3
NtRp135
(dp136
g68
I-1
sg69
I-1
sg70
I-1
sg71
I-1
sg31
I-1
sg72
I-1
sg73
I-1
sbsg74
g1
(g65
g3
NtRp137
(dp138
g68
I51462
sg69
I85478
sg70
F67.340000000000003
sg71
F65.400000000000006
sg31
F65.609999999999999
sg72
F67
sg73
F65.876499999999993
sbsg77
g1
(g65
g3
NtRp139
(dp140
g68
I-1
sg69
I-1
sg70
I-1
sg71
I-1
sg31
I-1
sg72
I-1
sg73
I-1
sbsbsS'20160422'
p141
g1
(g60
g3
NtRp142
(dp143
g63
S'20160422'
p144
sg53
g1
(g65
g3
NtRp145
(dp146
g68
I-1
sg69
I-1
sg70
I-1
sg71
I-1
sg31
I-1
sg72
I-1
sg73
I-1
sbsg74
g1
(g65
g3
NtRp147
(dp148
g68
I29517
sg69
I51608
sg70
F66.219999999999999
sg71
F65.049999999999997
sg31
F65.930000000000007
sg72
F65.049999999999997
sg73
F65.842500000000001
sbsg77
g1
(g65
g3
NtRp149
(dp150
g68
I-1
sg69
I-1
sg70
I-1
sg71
I-1
sg31
I-1
sg72
I-1
sg73
I-1
sbsbsS'20160425'
p151
g1
(g60
g3
NtRp152
(dp153
g63
S'20160425'
p154
sg53
g1
(g65
g3
NtRp155
(dp156
g68
I-1
sg69
I-1
sg70
I-1
sg71
I-1
sg31
I-1
sg72
I-1
sg73
I-1
sbsg74
g1
(g65
g3
NtRp157
(dp158
g68
I18759
sg69
I34184
sg70
F65.849999999999994
sg71
F65.140000000000001
sg31
F65.700000000000003
sg72
F65.640000000000001
sg73
F65.564999999999998
sbsg77
g1
(g65
g3
NtRp159
(dp160
g68
I-1
sg69
I-1
sg70
I-1
sg71
I-1
sg31
I-1
sg72
I-1
sg73
I-1
sbsbsS'20160427'
p161
g1
(g60
g3
NtRp162
(dp163
g63
S'20160427'
p164
sg53
g1
(g65
g3
NtRp165
(dp166
g68
I-1
sg69
I-1
sg70
I-1
sg71
I-1
sg31
I-1
sg72
I-1
sg73
I-1
sbsg74
g1
(g65
g3
NtRp167
(dp168
g68
I22136
sg69
I38277
sg70
F66.670000000000002
sg71
F65.829999999999998
sg31
F66.230000000000004
sg72
F66.390000000000001
sg73
F66.358999999999995
sbsg77
g1
(g65
g3
NtRp169
(dp170
g68
I-1
sg69
I-1
sg70
I-1
sg71
I-1
sg31
I-1
sg72
I-1
sg73
I-1
sbsbsS'20160426'
p171
g1
(g60
g3
NtRp172
(dp173
g63
S'20160426'
p174
sg53
g1
(g65
g3
NtRp175
(dp176
g68
I-1
sg69
I-1
sg70
I-1
sg71
I-1
sg31
I-1
sg72
I-1
sg73
I-1
sbsg74
g1
(g65
g3
NtRp177
(dp178
g68
I18719
sg69
I33196
sg70
F66.430000000000007
sg71
F65.629999999999995
sg31
F66.200000000000003
sg72
F65.980000000000004
sg73
F66.137500000000003
sbsg77
g1
(g65
g3
NtRp179
(dp180
g68
I-1
sg69
I-1
sg70
I-1
sg71
I-1
sg31
I-1
sg72
I-1
sg73
I-1
sbsbssg120
I00
sg121
F-1
sg122
I1
sbag1
(g21
g3
NtRp181
(dp182
g17
S''
sg24
I0
sg25
(dp183
sg27
I00
sg28
g29
sg30
Nsg31
I0
sg32
g1
(g33
g3
NtRp184
(dp185
g36
I0
sg37
S''
sg38
S'BAC'
p186
sg40
g29
sg41
I00
sg42
I100
sg43
S''
sg44
g45
sg46
g47
sg48
g47
sg49
F0
sbsg50
(lp187
sg52
g186
sg53
I0
sg54
I0
sg55
F-1
sg56
g4
sg57
(dp188
S'20160421'
p189
g1
(g60
g3
NtRp190
(dp191
g63
S'20160421'
p192
sg53
g1
(g65
g3
NtRp193
(dp194
g68
I-1
sg69
I-1
sg70
I-1
sg71
I-1
sg31
I-1
sg72
I-1
sg73
I-1
sbsg74
g1
(g65
g3
NtRp195
(dp196
g68
I150120
sg69
I1136579
sg70
F15.140000000000001
sg71
F14.75
sg31
F14.9
sg72
F14.98
sg73
F14.9255
sbsg77
g1
(g65
g3
NtRp197
(dp198
g68
I-1
sg69
I-1
sg70
I-1
sg71
I-1
sg31
I-1
sg72
I-1
sg73
I-1
sbsbsS'20160422'
p199
g1
(g60
g3
NtRp200
(dp201
g63
S'20160422'
p202
sg53
g1
(g65
g3
NtRp203
(dp204
g68
I-1
sg69
I-1
sg70
I-1
sg71
I-1
sg31
I-1
sg72
I-1
sg73
I-1
sbsg74
g1
(g65
g3
NtRp205
(dp206
g68
I110504
sg69
I762942
sg70
F15.140000000000001
sg71
F14.859999999999999
sg31
F15.109999999999999
sg72
F14.869999999999999
sg73
F15.0345
sbsg77
g1
(g65
g3
NtRp207
(dp208
g68
I-1
sg69
I-1
sg70
I-1
sg71
I-1
sg31
I-1
sg72
I-1
sg73
I-1
sbsbsS'20160425'
p209
g1
(g60
g3
NtRp210
(dp211
g63
S'20160425'
p212
sg53
g1
(g65
g3
NtRp213
(dp214
g68
I-1
sg69
I-1
sg70
I-1
sg71
I-1
sg31
I-1
sg72
I-1
sg73
I-1
sbsg74
g1
(g65
g3
NtRp215
(dp216
g68
I91341
sg69
I650808
sg70
F15.140000000000001
sg71
F14.81
sg31
F14.960000000000001
sg72
F15.02
sg73
F14.938499999999999
sbsg77
g1
(g65
g3
NtRp217
(dp218
g68
I-1
sg69
I-1
sg70
I-1
sg71
I-1
sg31
I-1
sg72
I-1
sg73
I-1
sbsbsS'20160427'
p219
g1
(g60
g3
NtRp220
(dp221
g63
S'20160427'
p222
sg53
g1
(g65
g3
NtRp223
(dp224
g68
I-1
sg69
I-1
sg70
I-1
sg71
I-1
sg31
I-1
sg72
I-1
sg73
I-1
sbsg74
g1
(g65
g3
NtRp225
(dp226
g68
I137946
sg69
I954177
sg70
F15.300000000000001
sg71
F14.98
sg31
F15.02
sg72
F15.02
sg73
F15.092000000000001
sbsg77
g1
(g65
g3
NtRp227
(dp228
g68
I-1
sg69
I-1
sg70
I-1
sg71
I-1
sg31
I-1
sg72
I-1
sg73
I-1
sbsbsS'20160426'
p229
g1
(g60
g3
NtRp230
(dp231
g63
S'20160426'
p232
sg53
g1
(g65
g3
NtRp233
(dp234
g68
I-1
sg69
I-1
sg70
I-1
sg71
I-1
sg31
I-1
sg72
I-1
sg73
I-1
sbsg74
g1
(g65
g3
NtRp235
(dp236
g68
I97850
sg69
I728944
sg70
F15.140000000000001
sg71
F14.800000000000001
sg31
F15.09
sg72
F15.02
sg73
F15.019500000000001
sbsg77
g1
(g65
g3
NtRp237
(dp238
g68
I-1
sg69
I-1
sg70
I-1
sg71
I-1
sg31
I-1
sg72
I-1
sg73
I-1
sbsbssg120
I00
sg121
F-1
sg122
I2
sbasb.