ccopy_reg
_reconstructor
p1
(cmarketObjects
portfolio
p2
c__builtin__
object
p3
NtRp4
(dp5
S'totalCash'
p6
I0
sS'stockMarketValue'
p7
I0
sS'netLiquidation'
p8
I0
sS'optionMarketValue'
p9
I0
sS'cashBalance'
p10
I0
sS'availableFunds'
p11
I0
sS'realizedPnL'
p12
I0
sS'unrealizedPnL'
p13
I0
sS'openPositions'
p14
(lp15
sS'maintenance'
p16
I-1
sS'promoted'
p17
(lp18
S''
aS''
aS''
aS''
aS''
aS''
aS''
aS''
aS''
aS''
asS'stocks'
p19
(lp20
g1
(cmarketObjects
stock
p21
g3
NtRp22
(dp23
g17
S''
sS'subscribed'
p24
I00
sS'last'
p25
I0
sS'target'
p26
(dp27
sS'close'
p28
I0
sS'secType'
p29
S'STK'
p30
sS'industry'
p31
NsS'symbol'
p32
S'AAPL'
p33
sS'contract'
p34
g1
(cib.ext.Contract
Contract
p35
g3
NtRp36
(dp37
S'm_conId'
p38
I0
sS'm_strike'
p39
I0
sS'm_includeExpired'
p40
I00
sbsS'options'
p41
(lp42
sS'impliedVolatility'
p43
I0
sS'position'
p44
I0
sS'ask'
p45
I0
sS'portfolio'
p46
g4
sS'historicalData'
p47
(lp48
sS'bid'
p49
I0
sS'subscrIndex'
p50
I-1
sbag1
(g21
g3
NtRp51
(dp52
g17
S''
sg24
I00
sg25
I0
sg26
(dp53
sg28
I0
sg29
g30
sg31
Nsg32
S'NFLX'
p54
sg34
g1
(g35
g3
NtRp55
(dp56
g38
I0
sg39
I0
sg40
I00
sbsg41
(lp57
sg43
I0
sg44
I0
sg45
I0
sg46
g4
sg47
(lp58
sg49
I0
sg50
I-1
sbag1
(g21
g3
NtRp59
(dp60
g17
S''
sg24
I00
sg25
I0
sg26
(dp61
sg28
I0
sg29
g30
sg31
Nsg32
S'NKE'
p62
sg34
g1
(g35
g3
NtRp63
(dp64
g38
I0
sg39
I0
sg40
I00
sbsg41
(lp65
sg43
I0
sg44
I0
sg45
I0
sg46
g4
sg47
(lp66
sg49
I0
sg50
I-1
sbag1
(g21
g3
NtRp67
(dp68
g17
S''
sg24
I00
sg25
I0
sg26
(dp69
sg28
I0
sg29
g30
sg31
Nsg32
S'COF'
p70
sg34
g1
(g35
g3
NtRp71
(dp72
g38
I0
sg39
I0
sg40
I00
sbsg41
(lp73
sg43
I0
sg44
I0
sg45
I0
sg46
g4
sg47
(lp74
sg49
I0
sg50
I-1
sbag1
(g21
g3
NtRp75
(dp76
g17
S''
sg24
I00
sg25
I0
sg26
(dp77
sg28
I0
sg29
g30
sg31
Nsg32
S'TSLA'
p78
sg34
g1
(g35
g3
NtRp79
(dp80
g38
I0
sg39
I0
sg40
I00
sbsg41
(lp81
sg43
I0
sg44
I0
sg45
I0
sg46
g4
sg47
(lp82
sg49
I0
sg50
I-1
sbag1
(g21
g3
NtRp83
(dp84
g17
S''
sg24
I00
sg25
I0
sg26
(dp85
sg28
I0
sg29
g30
sg31
Nsg32
S'GSK'
p86
sg34
g1
(g35
g3
NtRp87
(dp88
g38
I0
sg39
I0
sg40
I00
sbsg41
(lp89
sg43
I0
sg44
I0
sg45
I0
sg46
g4
sg47
(lp90
sg49
I0
sg50
I-1
sbag1
(g21
g3
NtRp91
(dp92
g17
S''
sg24
I00
sg25
I0
sg26
(dp93
sg28
I0
sg29
g30
sg31
Nsg32
S'BAC'
p94
sg34
g1
(g35
g3
NtRp95
(dp96
g38
I0
sg39
I0
sg40
I00
sbsg41
(lp97
sg43
I0
sg44
I0
sg45
I0
sg46
g4
sg47
(lp98
sg49
I0
sg50
I-1
sbag1
(g21
g3
NtRp99
(dp100
g17
S''
sg24
I00
sg25
I0
sg26
(dp101
sg28
I0
sg29
g30
sg31
Nsg32
S'MSFT'
p102
sg34
g1
(g35
g3
NtRp103
(dp104
g38
I0
sg39
I0
sg40
I00
sbsg41
(lp105
sg43
I0
sg44
I0
sg45
I0
sg46
g4
sg47
(lp106
sg49
I0
sg50
I-1
sbag1
(g21
g3
NtRp107
(dp108
g17
S''
sg24
I00
sg25
I0
sg26
(dp109
sg28
I0
sg29
g30
sg31
Nsg32
S'CAT'
p110
sg34
g1
(g35
g3
NtRp111
(dp112
g38
I0
sg39
I0
sg40
I00
sbsg41
(lp113
sg43
I0
sg44
I0
sg45
I0
sg46
g4
sg47
(lp114
sg49
I0
sg50
I-1
sbag1
(g21
g3
NtRp115
(dp116
g17
S''
sg24
I00
sg25
I0
sg26
(dp117
sg28
I0
sg29
g30
sg31
Nsg32
S'AXP'
p118
sg34
g1
(g35
g3
NtRp119
(dp120
g38
I0
sg39
I0
sg40
I00
sbsg41
(lp121
sg43
I0
sg44
I0
sg45
I0
sg46
g4
sg47
(lp122
sg49
I0
sg50
I-1
sbasb.