ccopy_reg
_reconstructor
p1
(cmarketObjects
portfolio
p2
c__builtin__
object
p3
NtRp4
(dp5
S'totalCash'
p6
I0
sS'stockMarketValue'
p7
I0
sS'netLiquidation'
p8
I0
sS'optionMarketValue'
p9
I0
sS'cashBalance'
p10
I0
sS'availableFunds'
p11
I0
sS'realizedPnL'
p12
I0
sS'unrealizedPnL'
p13
I0
sS'openPositions'
p14
(lp15
sS'maintenance'
p16
I-1
sS'promoted'
p17
(lp18
NaNaNaNaNaNasS'stocks'
p19
(lp20
g1
(cmarketObjects
stock
p21
g3
NtRp22
(dp23
g17
NsS'last'
p24
I0
sS'historicalVolatility'
p25
I0
sS'subscribed'
p26
I00
sS'cId'
p27
I-1
sS'secType'
p28
S'STK'
p29
sS'industry'
p30
NsS'close'
p31
I0
sS'contract'
p32
g1
(cib.ext.Contract
Contract
p33
g3
NtRp34
(dp35
S'm_conId'
p36
I0
sS'm_right'
p37
S''
sS'm_symbol'
p38
S'MSFT'
p39
sS'm_secType'
p40
g29
sS'm_includeExpired'
p41
I00
sS'm_multiplier'
p42
I100
sS'm_expiry'
p43
S''
sS'm_currency'
p44
S'USD'
p45
sS'm_primaryExchange'
p46
S'SMART'
p47
sS'm_exchange'
p48
g47
sS'm_strike'
p49
F0
sbsS'options'
p50
(lp51
sS'symbol'
p52
g39
sS'impliedVolatility'
p53
I0
sS'objId'
p54
I0
sS'position'
p55
I0
sS'ask'
p56
I0
sS'portfolio'
p57
g4
sS'historicalData'
p58
(dp59
sS'bid'
p60
I0
sS'target'
p61
(dp62
sbag1
(g21
g3
NtRp63
(dp64
g17
Nsg24
I0
sg25
I0
sg26
I00
sg27
I-1
sg28
g29
sg30
Nsg31
I0
sg32
g1
(g33
g3
NtRp65
(dp66
g36
I0
sg37
S''
sg38
S'CAT'
p67
sg40
g29
sg41
I00
sg42
I100
sg43
S''
sg44
g45
sg46
g47
sg48
g47
sg49
F0
sbsg50
(lp68
sg52
g67
sg53
I0
sg54
I1
sg55
I0
sg56
I0
sg57
g4
sg58
(dp69
sg60
I0
sg61
(dp70
sbag1
(g21
g3
NtRp71
(dp72
g17
Nsg24
I0
sg25
I0
sg26
I00
sg27
I-1
sg28
g29
sg30
Nsg31
I0
sg32
g1
(g33
g3
NtRp73
(dp74
g36
I0
sg37
S''
sg38
S'COF'
p75
sg40
g29
sg41
I00
sg42
I100
sg43
S''
sg44
g45
sg46
g47
sg48
g47
sg49
F0
sbsg50
(lp76
sg52
g75
sg53
I0
sg54
I2
sg55
I0
sg56
I0
sg57
g4
sg58
(dp77
sg60
I0
sg61
(dp78
sbag1
(g21
g3
NtRp79
(dp80
g17
Nsg24
I0
sg25
I0
sg26
I00
sg27
I-1
sg28
g29
sg30
Nsg31
I0
sg32
g1
(g33
g3
NtRp81
(dp82
g36
I0
sg37
S''
sg38
S'GSK'
p83
sg40
g29
sg41
I00
sg42
I100
sg43
S''
sg44
g45
sg46
g47
sg48
g47
sg49
F0
sbsg50
(lp84
sg52
g83
sg53
I0
sg54
I3
sg55
I0
sg56
I0
sg57
g4
sg58
(dp85
sg60
I0
sg61
(dp86
sbag1
(g21
g3
NtRp87
(dp88
g17
Nsg24
I0
sg25
I0
sg26
I00
sg27
I-1
sg28
g29
sg30
Nsg31
I0
sg32
g1
(g33
g3
NtRp89
(dp90
g36
I0
sg37
S''
sg38
S'AXP'
p91
sg40
g29
sg41
I00
sg42
I100
sg43
S''
sg44
g45
sg46
g47
sg48
g47
sg49
F0
sbsg50
(lp92
sg52
g91
sg53
I0
sg54
I4
sg55
I0
sg56
I0
sg57
g4
sg58
(dp93
sg60
I0
sg61
(dp94
sbag1
(g21
g3
NtRp95
(dp96
g17
Nsg24
I0
sg25
I0
sg26
I00
sg27
I-1
sg28
g29
sg30
Nsg31
I0
sg32
g1
(g33
g3
NtRp97
(dp98
g36
I0
sg37
S''
sg38
S'BAC'
p99
sg40
g29
sg41
I00
sg42
I100
sg43
S''
sg44
g45
sg46
g47
sg48
g47
sg49
F0
sbsg50
(lp100
sg52
g99
sg53
I0
sg54
I5
sg55
I0
sg56
I0
sg57
g4
sg58
(dp101
sg60
I0
sg61
(dp102
sbasb.