ccopy_reg
_reconstructor
p0
(cmarketObjects
portfolio
p1
c__builtin__
object
p2
Ntp3
Rp4
(dp5
S'stocks'
p6
(lp7
g0
(cmarketObjects
stock
p8
g2
Ntp9
Rp10
(dp11
S'last'
p12
I0
sS'subscrIndex'
p13
I0
sS'subscribed'
p14
I00
sS'secType'
p15
S'STK'
p16
sS'industry'
p17
NsS'contract'
p18
g0
(cib.ext.Contract
Contract
p19
g2
Ntp20
Rp21
(dp22
S'm_conId'
p23
I0
sS'm_strike'
p24
I0
sS'm_includeExpired'
p25
I00
sbsS'options'
p26
(lp27
sS'symbol'
p28
S'AXP'
p29
sS'close'
p30
I0
sS'ask'
p31
I0
sS'position'
p32
I0
sS'historicalData'
p33
(lp34
sS'bid'
p35
I0
sS'subscription'
p36
I01
sbasb.