ccopy_reg
_reconstructor
p1
(cmarketObjects
portfolio
p2
c__builtin__
object
p3
NtRp4
(dp5
S'totalCash'
p6
I0
sS'stockMarketValue'
p7
I0
sS'netLiquidation'
p8
I0
sS'optionMarketValue'
p9
I0
sS'cashBalance'
p10
I0
sS'availableFunds'
p11
I0
sS'realizedPnL'
p12
I0
sS'unrealizedPnL'
p13
I0
sS'openPositions'
p14
(lp15
sS'maintenance'
p16
I-1
sS'promoted'
p17
(lp18
NaNaNaNaNaNaNasS'stocks'
p19
(lp20
g1
(cmarketObjects
stock
p21
g3
NtRp22
(dp23
g17
NsS'subscribed'
p24
I00
sS'last'
p25
I0
sS'historicalVolatility'
p26
I0
sS'close'
p27
I0
sS'secType'
p28
S'STK'
p29
sS'industry'
p30
NsS'symbol'
p31
S'AAPL'
p32
sS'contract'
p33
g1
(cib.ext.Contract
Contract
p34
g3
NtRp35
(dp36
S'm_conId'
p37
I0
sS'm_symbol'
p38
g32
sS'm_secType'
p39
g29
sS'm_includeExpired'
p40
I00
sS'm_right'
p41
S''
sS'm_multiplier'
p42
I100
sS'm_expiry'
p43
S''
sS'm_currency'
p44
S'USD'
p45
sS'm_primaryExchange'
p46
S'SMART'
p47
sS'm_exchange'
p48
g47
sS'm_strike'
p49
F0
sbsS'options'
p50
(lp51
sS'impliedVolatility'
p52
I0
sS'objId'
p53
I0
sS'position'
p54
I0
sS'ask'
p55
I0
sS'portfolio'
p56
g4
sS'historicalData'
p57
(dp58
sS'bid'
p59
I0
sS'target'
p60
(dp61
sbag1
(g21
g3
NtRp62
(dp63
g17
Nsg24
I00
sg25
I0
sg26
I0
sg27
I0
sg28
g29
sg30
Nsg31
S'MSFT'
p64
sg33
g1
(g34
g3
NtRp65
(dp66
g37
I0
sg38
g64
sg39
g29
sg40
I00
sg41
S''
sg42
I100
sg43
S''
sg44
g45
sg46
g47
sg48
g47
sg49
F0
sbsg50
(lp67
sg52
I0
sg53
I1
sg54
I0
sg55
I0
sg56
g4
sg57
(dp68
sg59
I0
sg60
(dp69
sbag1
(g21
g3
NtRp70
(dp71
g17
Nsg24
I00
sg25
I0
sg26
I0
sg27
I0
sg28
g29
sg30
Nsg31
S'CAT'
p72
sg33
g1
(g34
g3
NtRp73
(dp74
g37
I0
sg38
g72
sg39
g29
sg40
I00
sg41
S''
sg42
I100
sg43
S''
sg44
g45
sg46
g47
sg48
g47
sg49
F0
sbsg50
(lp75
sg52
I0
sg53
I2
sg54
I0
sg55
I0
sg56
g4
sg57
(dp76
sg59
I0
sg60
(dp77
sbag1
(g21
g3
NtRp78
(dp79
g17
Nsg24
I00
sg25
I0
sg26
I0
sg27
I0
sg28
g29
sg30
Nsg31
S'COF'
p80
sg33
g1
(g34
g3
NtRp81
(dp82
g37
I0
sg38
g80
sg39
g29
sg40
I00
sg41
S''
sg42
I100
sg43
S''
sg44
g45
sg46
g47
sg48
g47
sg49
F0
sbsg50
(lp83
sg52
I0
sg53
I3
sg54
I0
sg55
I0
sg56
g4
sg57
(dp84
sg59
I0
sg60
(dp85
sbag1
(g21
g3
NtRp86
(dp87
g17
Nsg24
I00
sg25
I0
sg26
I0
sg27
I0
sg28
g29
sg30
Nsg31
S'GSK'
p88
sg33
g1
(g34
g3
NtRp89
(dp90
g37
I0
sg38
g88
sg39
g29
sg40
I00
sg41
S''
sg42
I100
sg43
S''
sg44
g45
sg46
g47
sg48
g47
sg49
F0
sbsg50
(lp91
sg52
I0
sg53
I4
sg54
I0
sg55
I0
sg56
g4
sg57
(dp92
sg59
I0
sg60
(dp93
sbag1
(g21
g3
NtRp94
(dp95
g17
Nsg24
I00
sg25
I0
sg26
I0
sg27
I0
sg28
g29
sg30
Nsg31
S'AXP'
p96
sg33
g1
(g34
g3
NtRp97
(dp98
g37
I0
sg38
g96
sg39
g29
sg40
I00
sg41
S''
sg42
I100
sg43
S''
sg44
g45
sg46
g47
sg48
g47
sg49
F0
sbsg50
(lp99
sg52
I0
sg53
I5
sg54
I0
sg55
I0
sg56
g4
sg57
(dp100
sg59
I0
sg60
(dp101
sbag1
(g21
g3
NtRp102
(dp103
g17
Nsg24
I00
sg25
I0
sg26
I0
sg27
I0
sg28
g29
sg30
Nsg31
S'BAC'
p104
sg33
g1
(g34
g3
NtRp105
(dp106
g37
I0
sg38
g104
sg39
g29
sg40
I00
sg41
S''
sg42
I100
sg43
S''
sg44
g45
sg46
g47
sg48
g47
sg49
F0
sbsg50
(lp107
sg52
I0
sg53
I6
sg54
I0
sg55
I0
sg56
g4
sg57
(dp108
sg59
I0
sg60
(dp109
sbasb.