ccopy_reg
_reconstructor
p1
(cmarketObjects
portfolio
p2
c__builtin__
object
p3
NtRp4
(dp5
S'totalCash'
p6
I0
sS'stockMarketValue'
p7
I0
sS'netLiquidation'
p8
I0
sS'optionMarketValue'
p9
I0
sS'cashBalance'
p10
I0
sS'availableFunds'
p11
I0
sS'realizedPnL'
p12
I0
sS'unrealizedPnL'
p13
I0
sS'openPositions'
p14
(lp15
sS'maintenance'
p16
I-1
sS'promoted'
p17
(lp18
NaNaNaNaNaNaNasS'stocks'
p19
(lp20
g1
(cmarketObjects
stock
p21
g3
NtRp22
(dp23
g17
NsS'last'
p24
I0
sS'historicalVolatility'
p25
I-1
sS'subscribed'
p26
I00
sS'cId'
p27
I-1
sS'secType'
p28
S'STK'
p29
sS'industry'
p30
S'Technology'
p31
sS'close'
p32
I0
sS'contract'
p33
g1
(cib.ext.Contract
Contract
p34
g3
NtRp35
(dp36
S'm_tradingClass'
p37
S'NMS'
p38
sS'm_conId'
p39
I265598
sS'm_symbol'
p40
S'AAPL'
p41
sS'm_secType'
p42
S'STK'
p43
sS'm_includeExpired'
p44
I00
sS'm_multiplier'
p45
NsS'm_primaryExch'
p46
S'NASDAQ'
p47
sS'm_right'
p48
NsS'm_expiry'
p49
NsS'm_currency'
p50
S'USD'
p51
sS'm_localSymbol'
p52
S'AAPL'
p53
sS'm_exchange'
p54
S'SMART'
p55
sS'm_strike'
p56
F0
sbsS'options'
p57
(lp58
sS'symbol'
p59
S'AAPL'
p60
sS'impliedVolatility'
p61
I0
sS'objId'
p62
I0
sS'position'
p63
I0
sS'ask'
p64
I0
sS'portfolio'
p65
g4
sS'historicalData'
p66
(dp67
S'20160429'
p68
g1
(cmarketObjects
historicalData
p69
g3
NtRp70
(dp71
S'date'
p72
S'20160429'
p73
sg61
g1
(cmarketObjects
dataFormat
p74
g3
NtRp75
(dp76
S'count'
p77
I-1
sS'volume'
p78
I-1
sS'high'
p79
I-1
sS'low'
p80
I-1
sg32
I-1
sS'open'
p81
I-1
sS'WAP'
p82
I-1
sbsS'trades'
p83
g1
(g74
g3
NtRp84
(dp85
g77
I266472
sg78
I589930
sg79
F94.719999999999999
sg80
F92.510000000000005
sg32
F93.739999999999995
sg81
F93.989999999999995
sg82
F93.441500000000005
sbsg25
g1
(g74
g3
NtRp86
(dp87
g77
I-1
sg78
I-1
sg79
I-1
sg80
I-1
sg32
I-1
sg81
I-1
sg82
I-1
sbsbsS'20160428'
p88
g1
(g69
g3
NtRp89
(dp90
g72
S'20160428'
p91
sg61
g1
(g74
g3
NtRp92
(dp93
g77
I-1
sg78
I-1
sg79
I-1
sg80
I-1
sg32
I-1
sg81
I-1
sg82
I-1
sbsg83
g1
(g74
g3
NtRp94
(dp95
g77
I344360
sg78
I728167
sg79
F97.879999999999995
sg80
F94.25
sg32
F94.829999999999998
sg81
F97.540000000000006
sg82
F96.1845
sbsg25
g1
(g74
g3
NtRp96
(dp97
g77
I-1
sg78
I-1
sg79
I-1
sg80
I-1
sg32
I-1
sg81
I-1
sg82
I-1
sbsbsS'20160425'
p98
g1
(g69
g3
NtRp99
(dp100
g72
S'20160425'
p101
sg61
g1
(g74
g3
NtRp102
(dp103
g77
I-1
sg78
I-1
sg79
I-1
sg80
I-1
sg32
I-1
sg81
I-1
sg82
I-1
sbsg83
g1
(g74
g3
NtRp104
(dp105
g77
I115593
sg78
I239160
sg79
F105.65000000000001
sg80
F104.51000000000001
sg32
F105.08
sg81
F104.90000000000001
sg82
F105.033
sbsg25
g1
(g74
g3
NtRp106
(dp107
g77
I-1
sg78
I-1
sg79
I-1
sg80
I-1
sg32
I-1
sg81
I-1
sg82
I-1
sbsbsS'20160427'
p108
g1
(g69
g3
NtRp109
(dp110
g72
S'20160427'
p111
sg61
g1
(g74
g3
NtRp112
(dp113
g77
I-1
sg78
I-1
sg79
I-1
sg80
I-1
sg32
I-1
sg81
I-1
sg82
I-1
sbsg83
g1
(g74
g3
NtRp114
(dp115
g77
I452099
sg78
I959994
sg79
F98.709999999999994
sg80
F95.680000000000007
sg32
F97.819999999999993
sg81
F95.980000000000004
sg82
F97.396500000000003
sbsg25
g1
(g74
g3
NtRp116
(dp117
g77
I-1
sg78
I-1
sg79
I-1
sg80
I-1
sg32
I-1
sg81
I-1
sg82
I-1
sbsbsS'20160426'
p118
g1
(g69
g3
NtRp119
(dp120
g72
S'20160426'
p121
sg61
g1
(g74
g3
NtRp122
(dp123
g77
I-1
sg78
I-1
sg79
I-1
sg80
I-1
sg32
I-1
sg81
I-1
sg82
I-1
sbsg83
g1
(g74
g3
NtRp124
(dp125
g77
I172283
sg78
I349049
sg79
F105.3
sg80
F103.86
sg32
F104.34999999999999
sg81
F103.92
sg82
F104.506
sbsg25
g1
(g74
g3
NtRp126
(dp127
g77
I-1
sg78
I-1
sg79
I-1
sg80
I-1
sg32
I-1
sg81
I-1
sg82
I-1
sbsbssS'bid'
p128
I0
sS'target'
p129
(dp130
sbag1
(g21
g3
NtRp131
(dp132
g17
Nsg24
I0
sg25
I-1
sg26
I00
sg27
I-1
sg28
g29
sg30
S'Technology'
p133
sg32
I0
sg33
g1
(g34
g3
NtRp134
(dp135
g37
S'NMS'
p136
sg39
I272093
sg40
S'MSFT'
p137
sg42
S'STK'
p138
sg44
I00
sg45
Nsg46
S'NASDAQ'
p139
sg48
Nsg49
Nsg50
S'USD'
p140
sg52
S'MSFT'
p141
sg54
S'SMART'
p142
sg56
F0
sbsg57
(lp143
sg59
S'MSFT'
p144
sg61
I0
sg62
I1
sg63
I0
sg64
I0
sg65
g4
sg66
(dp145
S'20160429'
p146
g1
(g69
g3
NtRp147
(dp148
g72
S'20160429'
p149
sg61
g1
(g74
g3
NtRp150
(dp151
g77
I-1
sg78
I-1
sg79
I-1
sg80
I-1
sg32
I-1
sg81
I-1
sg82
I-1
sbsg83
g1
(g74
g3
NtRp152
(dp153
g77
I217057
sg78
I417142
sg79
F50.25
sg80
F49.350000000000001
sg32
F49.869999999999997
sg81
F49.409999999999997
sg82
F49.883499999999998
sbsg25
g1
(g74
g3
NtRp154
(dp155
g77
I-1
sg78
I-1
sg79
I-1
sg80
I-1
sg32
I-1
sg81
I-1
sg82
I-1
sbsbsS'20160428'
p156
g1
(g69
g3
NtRp157
(dp158
g72
S'20160428'
p159
sg61
g1
(g74
g3
NtRp160
(dp161
g77
I-1
sg78
I-1
sg79
I-1
sg80
I-1
sg32
I-1
sg81
I-1
sg82
I-1
sbsg83
g1
(g74
g3
NtRp162
(dp163
g77
I176492
sg78
I370582
sg79
F50.770000000000003
sg80
F49.560000000000002
sg32
F49.899999999999999
sg81
F50.619999999999997
sg82
F50.148000000000003
sbsg25
g1
(g74
g3
NtRp164
(dp165
g77
I-1
sg78
I-1
sg79
I-1
sg80
I-1
sg32
I-1
sg81
I-1
sg82
I-1
sbsbsS'20160425'
p166
g1
(g69
g3
NtRp167
(dp168
g72
S'20160425'
p169
sg61
g1
(g74
g3
NtRp170
(dp171
g77
I-1
sg78
I-1
sg79
I-1
sg80
I-1
sg32
I-1
sg81
I-1
sg82
I-1
sbsg83
g1
(g74
g3
NtRp172
(dp173
g77
I142289
sg78
I292592
sg79
F52.130000000000003
sg80
F51.630000000000003
sg32
F52.109999999999999
sg81
F51.780000000000001
sg82
F51.908999999999999
sbsg25
g1
(g74
g3
NtRp174
(dp175
g77
I-1
sg78
I-1
sg79
I-1
sg80
I-1
sg32
I-1
sg81
I-1
sg82
I-1
sbsbsS'20160427'
p176
g1
(g69
g3
NtRp177
(dp178
g72
S'20160427'
p179
sg61
g1
(g74
g3
NtRp180
(dp181
g77
I-1
sg78
I-1
sg79
I-1
sg80
I-1
sg32
I-1
sg81
I-1
sg82
I-1
sbsg83
g1
(g74
g3
NtRp182
(dp183
g77
I179981
sg78
I371674
sg79
F51.5
sg80
F50.549999999999997
sg32
F50.939999999999998
sg81
F51.490000000000002
sg82
F50.887500000000003
sbsg25
g1
(g74
g3
NtRp184
(dp185
g77
I-1
sg78
I-1
sg79
I-1
sg80
I-1
sg32
I-1
sg81
I-1
sg82
I-1
sbsbsS'20160426'
p186
g1
(g69
g3
NtRp187
(dp188
g72
S'20160426'
p189
sg61
g1
(g74
g3
NtRp190
(dp191
g77
I-1
sg78
I-1
sg79
I-1
sg80
I-1
sg32
I-1
sg81
I-1
sg82
I-1
sbsg83
g1
(g74
g3
NtRp192
(dp193
g77
I135471
sg78
I292368
sg79
F52.350000000000001
sg80
F51.090000000000003
sg32
F51.439999999999998
sg81
F52.25
sg82
F51.445500000000003
sbsg25
g1
(g74
g3
NtRp194
(dp195
g77
I-1
sg78
I-1
sg79
I-1
sg80
I-1
sg32
I-1
sg81
I-1
sg82
I-1
sbsbssg128
I0
sg129
(dp196
sbag1
(g21
g3
NtRp197
(dp198
g17
Nsg24
I0
sg25
I-1
sg26
I00
sg27
I-1
sg28
g29
sg30
S'Industrial'
p199
sg32
I0
sg33
g1
(g34
g3
NtRp200
(dp201
g37
S'CAT'
p202
sg39
I5437
sg40
S'CAT'
p203
sg42
S'STK'
p204
sg44
I00
sg45
Nsg46
S'NYSE'
p205
sg48
Nsg49
Nsg50
S'USD'
p206
sg52
S'CAT'
p207
sg54
S'SMART'
p208
sg56
F0
sbsg57
(lp209
sg59
S'CAT'
p210
sg61
I0
sg62
I2
sg63
I0
sg64
I0
sg65
g4
sg66
(dp211
S'20160429'
p212
g1
(g69
g3
NtRp213
(dp214
g72
S'20160429'
p215
sg61
g1
(g74
g3
NtRp216
(dp217
g77
I-1
sg78
I-1
sg79
I-1
sg80
I-1
sg32
I-1
sg81
I-1
sg82
I-1
sbsg83
g1
(g74
g3
NtRp218
(dp219
g77
I38450
sg78
I60986
sg79
F79
sg80
F77.319999999999993
sg32
F77.719999999999999
sg81
F78.019999999999996
sg82
F77.998000000000005
sbsg25
g1
(g74
g3
NtRp220
(dp221
g77
I-1
sg78
I-1
sg79
I-1
sg80
I-1
sg32
I-1
sg81
I-1
sg82
I-1
sbsbsS'20160428'
p222
g1
(g69
g3
NtRp223
(dp224
g72
S'20160428'
p225
sg61
g1
(g74
g3
NtRp226
(dp227
g77
I-1
sg78
I-1
sg79
I-1
sg80
I-1
sg32
I-1
sg81
I-1
sg82
I-1
sbsg83
g1
(g74
g3
NtRp228
(dp229
g77
I25679
sg78
I40776
sg79
F79.170000000000002
sg80
F77.590000000000003
sg32
F77.75
sg81
F78.030000000000001
sg82
F78.474000000000004
sbsg25
g1
(g74
g3
NtRp230
(dp231
g77
I-1
sg78
I-1
sg79
I-1
sg80
I-1
sg32
I-1
sg81
I-1
sg82
I-1
sbsbsS'20160425'
p232
g1
(g69
g3
NtRp233
(dp234
g72
S'20160425'
p235
sg61
g1
(g74
g3
NtRp236
(dp237
g77
I-1
sg78
I-1
sg79
I-1
sg80
I-1
sg32
I-1
sg81
I-1
sg82
I-1
sbsg83
g1
(g74
g3
NtRp238
(dp239
g77
I45710
sg78
I70206
sg79
F78.859999999999999
sg80
F76.200000000000003
sg32
F76.790000000000006
sg81
F78.5
sg82
F76.841999999999999
sbsg25
g1
(g74
g3
NtRp240
(dp241
g77
I-1
sg78
I-1
sg79
I-1
sg80
I-1
sg32
I-1
sg81
I-1
sg82
I-1
sbsbsS'20160427'
p242
g1
(g69
g3
NtRp243
(dp244
g72
S'20160427'
p245
sg61
g1
(g74
g3
NtRp246
(dp247
g77
I-1
sg78
I-1
sg79
I-1
sg80
I-1
sg32
I-1
sg81
I-1
sg82
I-1
sbsg83
g1
(g74
g3
NtRp248
(dp249
g77
I24796
sg78
I38109
sg79
F78.890000000000001
sg80
F77.599999999999994
sg32
F78.680000000000007
sg81
F77.980000000000004
sg82
F78.363
sbsg25
g1
(g74
g3
NtRp250
(dp251
g77
I-1
sg78
I-1
sg79
I-1
sg80
I-1
sg32
I-1
sg81
I-1
sg82
I-1
sbsbsS'20160426'
p252
g1
(g69
g3
NtRp253
(dp254
g72
S'20160426'
p255
sg61
g1
(g74
g3
NtRp256
(dp257
g77
I-1
sg78
I-1
sg79
I-1
sg80
I-1
sg32
I-1
sg81
I-1
sg82
I-1
sbsg83
g1
(g74
g3
NtRp258
(dp259
g77
I31497
sg78
I52947
sg79
F77.739999999999995
sg80
F76.469999999999999
sg32
F77.650000000000006
sg81
F77.150000000000006
sg82
F77.221000000000004
sbsg25
g1
(g74
g3
NtRp260
(dp261
g77
I-1
sg78
I-1
sg79
I-1
sg80
I-1
sg32
I-1
sg81
I-1
sg82
I-1
sbsbssg128
I0
sg129
(dp262
sbag1
(g21
g3
NtRp263
(dp264
g17
Nsg24
I0
sg25
I-1
sg26
I00
sg27
I-1
sg28
g29
sg30
S'Financial'
p265
sg32
I0
sg33
g1
(g34
g3
NtRp266
(dp267
g37
S'COF'
p268
sg39
I5941
sg40
S'COF'
p269
sg42
S'STK'
p270
sg44
I00
sg45
Nsg46
S'NYSE'
p271
sg48
Nsg49
Nsg50
S'USD'
p272
sg52
S'COF'
p273
sg54
S'SMART'
p274
sg56
F0
sbsg57
(lp275
sg59
S'COF'
p276
sg61
I0
sg62
I3
sg63
I0
sg64
I0
sg65
g4
sg66
(dp277
S'20160429'
p278
g1
(g69
g3
NtRp279
(dp280
g72
S'20160429'
p281
sg61
g1
(g74
g3
NtRp282
(dp283
g77
I-1
sg78
I-1
sg79
I-1
sg80
I-1
sg32
I-1
sg81
I-1
sg82
I-1
sbsg83
g1
(g74
g3
NtRp284
(dp285
g77
I16495
sg78
I22687
sg79
F73.290000000000006
sg80
F71.870000000000005
sg32
F72.390000000000001
sg81
F72.989999999999995
sg82
F72.385499999999993
sbsg25
g1
(g74
g3
NtRp286
(dp287
g77
I-1
sg78
I-1
sg79
I-1
sg80
I-1
sg32
I-1
sg81
I-1
sg82
I-1
sbsbsS'20160428'
p288
g1
(g69
g3
NtRp289
(dp290
g72
S'20160428'
p291
sg61
g1
(g74
g3
NtRp292
(dp293
g77
I-1
sg78
I-1
sg79
I-1
sg80
I-1
sg32
I-1
sg81
I-1
sg82
I-1
sbsg83
g1
(g74
g3
NtRp294
(dp295
g77
I15329
sg78
I21965
sg79
F74.260000000000005
sg80
F72.989999999999995
sg32
F73.370000000000005
sg81
F73.560000000000002
sg82
F73.712000000000003
sbsg25
g1
(g74
g3
NtRp296
(dp297
g77
I-1
sg78
I-1
sg79
I-1
sg80
I-1
sg32
I-1
sg81
I-1
sg82
I-1
sbsbsS'20160425'
p298
g1
(g69
g3
NtRp299
(dp300
g72
S'20160425'
p301
sg61
g1
(g74
g3
NtRp302
(dp303
g77
I-1
sg78
I-1
sg79
I-1
sg80
I-1
sg32
I-1
sg81
I-1
sg82
I-1
sbsg83
g1
(g74
g3
NtRp304
(dp305
g77
I14135
sg78
I19843
sg79
F75.469999999999999
sg80
F74.480000000000004
sg32
F74.989999999999995
sg81
F75.079999999999998
sg82
F74.781999999999996
sbsg25
g1
(g74
g3
NtRp306
(dp307
g77
I-1
sg78
I-1
sg79
I-1
sg80
I-1
sg32
I-1
sg81
I-1
sg82
I-1
sbsbsS'20160427'
p308
g1
(g69
g3
NtRp309
(dp310
g72
S'20160427'
p311
sg61
g1
(g74
g3
NtRp312
(dp313
g77
I-1
sg78
I-1
sg79
I-1
sg80
I-1
sg32
I-1
sg81
I-1
sg82
I-1
sbsg83
g1
(g74
g3
NtRp314
(dp315
g77
I34394
sg78
I55879
sg79
F74.5
sg80
F72.819999999999993
sg32
F74.310000000000002
sg81
F73.129999999999995
sg82
F73.881500000000003
sbsg25
g1
(g74
g3
NtRp316
(dp317
g77
I-1
sg78
I-1
sg79
I-1
sg80
I-1
sg32
I-1
sg81
I-1
sg82
I-1
sbsbsS'20160426'
p318
g1
(g69
g3
NtRp319
(dp320
g72
S'20160426'
p321
sg61
g1
(g74
g3
NtRp322
(dp323
g77
I-1
sg78
I-1
sg79
I-1
sg80
I-1
sg32
I-1
sg81
I-1
sg82
I-1
sbsg83
g1
(g74
g3
NtRp324
(dp325
g77
I15501
sg78
I21906
sg79
F76
sg80
F74.629999999999995
sg32
F75.959999999999994
sg81
F75.030000000000001
sg82
F75.528499999999994
sbsg25
g1
(g74
g3
NtRp326
(dp327
g77
I-1
sg78
I-1
sg79
I-1
sg80
I-1
sg32
I-1
sg81
I-1
sg82
I-1
sbsbssg128
I0
sg129
(dp328
sbag1
(g21
g3
NtRp329
(dp330
g17
Nsg24
I0
sg25
I-1
sg26
I00
sg27
I-1
sg28
g29
sg30
S'Consumer, Non-cyclical'
p331
sg32
I0
sg33
g1
(g34
g3
NtRp332
(dp333
g37
S'GSK'
p334
sg39
I7656
sg40
S'GSK'
p335
sg42
S'STK'
p336
sg44
I00
sg45
Nsg46
S'NYSE'
p337
sg48
Nsg49
Nsg50
S'USD'
p338
sg52
S'GSK'
p339
sg54
S'SMART'
p340
sg56
F0
sbsg57
(lp341
sg59
S'GSK'
p342
sg61
I0
sg62
I4
sg63
I0
sg64
I0
sg65
g4
sg66
(dp343
S'20160429'
p344
g1
(g69
g3
NtRp345
(dp346
g72
S'20160429'
p347
sg61
g1
(g74
g3
NtRp348
(dp349
g77
I-1
sg78
I-1
sg79
I-1
sg80
I-1
sg32
I-1
sg81
I-1
sg82
I-1
sbsg83
g1
(g74
g3
NtRp350
(dp351
g77
I15156
sg78
I27702
sg79
F43.329999999999998
sg80
F42.68
sg32
F42.909999999999997
sg81
F43.189999999999998
sg82
F42.978000000000002
sbsg25
g1
(g74
g3
NtRp352
(dp353
g77
I-1
sg78
I-1
sg79
I-1
sg80
I-1
sg32
I-1
sg81
I-1
sg82
I-1
sbsbsS'20160428'
p354
g1
(g69
g3
NtRp355
(dp356
g72
S'20160428'
p357
sg61
g1
(g74
g3
NtRp358
(dp359
g77
I-1
sg78
I-1
sg79
I-1
sg80
I-1
sg32
I-1
sg81
I-1
sg82
I-1
sbsg83
g1
(g74
g3
NtRp360
(dp361
g77
I15755
sg78
I27730
sg79
F43.659999999999997
sg80
F43.18
sg32
F43.359999999999999
sg81
F43.450000000000003
sg82
F43.457999999999998
sbsg25
g1
(g74
g3
NtRp362
(dp363
g77
I-1
sg78
I-1
sg79
I-1
sg80
I-1
sg32
I-1
sg81
I-1
sg82
I-1
sbsbsS'20160425'
p364
g1
(g69
g3
NtRp365
(dp366
g72
S'20160425'
p367
sg61
g1
(g74
g3
NtRp368
(dp369
g77
I-1
sg78
I-1
sg79
I-1
sg80
I-1
sg32
I-1
sg81
I-1
sg82
I-1
sbsg83
g1
(g74
g3
NtRp370
(dp371
g77
I8506
sg78
I15688
sg79
F43.090000000000003
sg80
F42.850000000000001
sg32
F42.969999999999999
sg81
F43
sg82
F42.954000000000001
sbsg25
g1
(g74
g3
NtRp372
(dp373
g77
I-1
sg78
I-1
sg79
I-1
sg80
I-1
sg32
I-1
sg81
I-1
sg82
I-1
sbsbsS'20160427'
p374
g1
(g69
g3
NtRp375
(dp376
g72
S'20160427'
p377
sg61
g1
(g74
g3
NtRp378
(dp379
g77
I-1
sg78
I-1
sg79
I-1
sg80
I-1
sg32
I-1
sg81
I-1
sg82
I-1
sbsg83
g1
(g74
g3
NtRp380
(dp381
g77
I22564
sg78
I39412
sg79
F43.710000000000001
sg80
F43.229999999999997
sg32
F43.469999999999999
sg81
F43.630000000000003
sg82
F43.488
sbsg25
g1
(g74
g3
NtRp382
(dp383
g77
I-1
sg78
I-1
sg79
I-1
sg80
I-1
sg32
I-1
sg81
I-1
sg82
I-1
sbsbsS'20160426'
p384
g1
(g69
g3
NtRp385
(dp386
g72
S'20160426'
p387
sg61
g1
(g74
g3
NtRp388
(dp389
g77
I-1
sg78
I-1
sg79
I-1
sg80
I-1
sg32
I-1
sg81
I-1
sg82
I-1
sbsg83
g1
(g74
g3
NtRp390
(dp391
g77
I14864
sg78
I27739
sg79
F42.799999999999997
sg80
F42.530000000000001
sg32
F42.710000000000001
sg81
F42.659999999999997
sg82
F42.695999999999998
sbsg25
g1
(g74
g3
NtRp392
(dp393
g77
I-1
sg78
I-1
sg79
I-1
sg80
I-1
sg32
I-1
sg81
I-1
sg82
I-1
sbsbssg128
I0
sg129
(dp394
sbag1
(g21
g3
NtRp395
(dp396
g17
Nsg24
I0
sg25
I-1
sg26
I00
sg27
I-1
sg28
g29
sg30
S'Financial'
p397
sg32
I0
sg33
g1
(g34
g3
NtRp398
(dp399
g37
S'AXP'
p400
sg39
I4721
sg40
S'AXP'
p401
sg42
S'STK'
p402
sg44
I00
sg45
Nsg46
S'NYSE'
p403
sg48
Nsg49
Nsg50
S'USD'
p404
sg52
S'AXP'
p405
sg54
S'SMART'
p406
sg56
F0
sbsg57
(lp407
sg59
S'AXP'
p408
sg61
I0
sg62
I5
sg63
I0
sg64
I0
sg65
g4
sg66
(dp409
S'20160429'
p410
g1
(g69
g3
NtRp411
(dp412
g72
S'20160429'
p413
sg61
g1
(g74
g3
NtRp414
(dp415
g77
I-1
sg78
I-1
sg79
I-1
sg80
I-1
sg32
I-1
sg81
I-1
sg82
I-1
sbsg83
g1
(g74
g3
NtRp416
(dp417
g77
I24516
sg78
I40999
sg79
F65.790000000000006
sg80
F64.849999999999994
sg32
F65.430000000000007
sg81
F65.569999999999993
sg82
F65.286000000000001
sbsg25
g1
(g74
g3
NtRp418
(dp419
g77
I-1
sg78
I-1
sg79
I-1
sg80
I-1
sg32
I-1
sg81
I-1
sg82
I-1
sbsbsS'20160428'
p420
g1
(g69
g3
NtRp421
(dp422
g72
S'20160428'
p423
sg61
g1
(g74
g3
NtRp424
(dp425
g77
I-1
sg78
I-1
sg79
I-1
sg80
I-1
sg32
I-1
sg81
I-1
sg82
I-1
sbsg83
g1
(g74
g3
NtRp426
(dp427
g77
I16989
sg78
I30616
sg79
F66.489999999999995
sg80
F65.560000000000002
sg32
F65.840000000000003
sg81
F65.739999999999995
sg82
F66.114999999999995
sbsg25
g1
(g74
g3
NtRp428
(dp429
g77
I-1
sg78
I-1
sg79
I-1
sg80
I-1
sg32
I-1
sg81
I-1
sg82
I-1
sbsbsS'20160425'
p430
g1
(g69
g3
NtRp431
(dp432
g72
S'20160425'
p433
sg61
g1
(g74
g3
NtRp434
(dp435
g77
I-1
sg78
I-1
sg79
I-1
sg80
I-1
sg32
I-1
sg81
I-1
sg82
I-1
sbsg83
g1
(g74
g3
NtRp436
(dp437
g77
I18759
sg78
I34184
sg79
F65.849999999999994
sg80
F65.140000000000001
sg32
F65.700000000000003
sg81
F65.640000000000001
sg82
F65.564999999999998
sbsg25
g1
(g74
g3
NtRp438
(dp439
g77
I-1
sg78
I-1
sg79
I-1
sg80
I-1
sg32
I-1
sg81
I-1
sg82
I-1
sbsbsS'20160427'
p440
g1
(g69
g3
NtRp441
(dp442
g72
S'20160427'
p443
sg61
g1
(g74
g3
NtRp444
(dp445
g77
I-1
sg78
I-1
sg79
I-1
sg80
I-1
sg32
I-1
sg81
I-1
sg82
I-1
sbsg83
g1
(g74
g3
NtRp446
(dp447
g77
I22151
sg78
I38297
sg79
F66.670000000000002
sg80
F65.829999999999998
sg32
F66.230000000000004
sg81
F66.390000000000001
sg82
F66.358999999999995
sbsg25
g1
(g74
g3
NtRp448
(dp449
g77
I-1
sg78
I-1
sg79
I-1
sg80
I-1
sg32
I-1
sg81
I-1
sg82
I-1
sbsbsS'20160426'
p450
g1
(g69
g3
NtRp451
(dp452
g72
S'20160426'
p453
sg61
g1
(g74
g3
NtRp454
(dp455
g77
I-1
sg78
I-1
sg79
I-1
sg80
I-1
sg32
I-1
sg81
I-1
sg82
I-1
sbsg83
g1
(g74
g3
NtRp456
(dp457
g77
I18719
sg78
I33196
sg79
F66.430000000000007
sg80
F65.629999999999995
sg32
F66.200000000000003
sg81
F65.980000000000004
sg82
F66.137500000000003
sbsg25
g1
(g74
g3
NtRp458
(dp459
g77
I-1
sg78
I-1
sg79
I-1
sg80
I-1
sg32
I-1
sg81
I-1
sg82
I-1
sbsbssg128
I0
sg129
(dp460
sbag1
(g21
g3
NtRp461
(dp462
g17
Nsg24
I0
sg25
I-1
sg26
I00
sg27
I-1
sg28
g29
sg30
S'Financial'
p463
sg32
I0
sg33
g1
(g34
g3
NtRp464
(dp465
g37
S'BAC'
p466
sg39
I10098
sg40
S'BAC'
p467
sg42
S'STK'
p468
sg44
I00
sg45
Nsg46
S'NYSE'
p469
sg48
Nsg49
Nsg50
S'USD'
p470
sg52
S'BAC'
p471
sg54
S'SMART'
p472
sg56
F0
sbsg57
(lp473
sg59
S'BAC'
p474
sg61
I0
sg62
I6
sg63
I0
sg64
I0
sg65
g4
sg66
(dp475
S'20160429'
p476
g1
(g69
g3
NtRp477
(dp478
g72
S'20160429'
p479
sg61
g1
(g74
g3
NtRp480
(dp481
g77
I-1
sg78
I-1
sg79
I-1
sg80
I-1
sg32
I-1
sg81
I-1
sg82
I-1
sbsg83
g1
(g74
g3
NtRp482
(dp483
g77
I151234
sg78
I1100231
sg79
F14.85
sg80
F14.43
sg32
F14.56
sg81
F14.73
sg82
F14.573
sbsg25
g1
(g74
g3
NtRp484
(dp485
g77
I-1
sg78
I-1
sg79
I-1
sg80
I-1
sg32
I-1
sg81
I-1
sg82
I-1
sbsbsS'20160428'
p486
g1
(g69
g3
NtRp487
(dp488
g72
S'20160428'
p489
sg61
g1
(g74
g3
NtRp490
(dp491
g77
I-1
sg78
I-1
sg79
I-1
sg80
I-1
sg32
I-1
sg81
I-1
sg82
I-1
sbsg83
g1
(g74
g3
NtRp492
(dp493
g77
I98875
sg78
I723071
sg79
F15.08
sg80
F14.76
sg32
F14.789999999999999
sg81
F14.92
sg82
F14.9435
sbsg25
g1
(g74
g3
NtRp494
(dp495
g77
I-1
sg78
I-1
sg79
I-1
sg80
I-1
sg32
I-1
sg81
I-1
sg82
I-1
sbsbsS'20160425'
p496
g1
(g69
g3
NtRp497
(dp498
g72
S'20160425'
p499
sg61
g1
(g74
g3
NtRp500
(dp501
g77
I-1
sg78
I-1
sg79
I-1
sg80
I-1
sg32
I-1
sg81
I-1
sg82
I-1
sbsg83
g1
(g74
g3
NtRp502
(dp503
g77
I91341
sg78
I650808
sg79
F15.140000000000001
sg80
F14.81
sg32
F14.960000000000001
sg81
F15.02
sg82
F14.938499999999999
sbsg25
g1
(g74
g3
NtRp504
(dp505
g77
I-1
sg78
I-1
sg79
I-1
sg80
I-1
sg32
I-1
sg81
I-1
sg82
I-1
sbsbsS'20160427'
p506
g1
(g69
g3
NtRp507
(dp508
g72
S'20160427'
p509
sg61
g1
(g74
g3
NtRp510
(dp511
g77
I-1
sg78
I-1
sg79
I-1
sg80
I-1
sg32
I-1
sg81
I-1
sg82
I-1
sbsg83
g1
(g74
g3
NtRp512
(dp513
g77
I138042
sg78
I955517
sg79
F15.300000000000001
sg80
F14.98
sg32
F15.02
sg81
F15.02
sg82
F15.092000000000001
sbsg25
g1
(g74
g3
NtRp514
(dp515
g77
I-1
sg78
I-1
sg79
I-1
sg80
I-1
sg32
I-1
sg81
I-1
sg82
I-1
sbsbsS'20160426'
p516
g1
(g69
g3
NtRp517
(dp518
g72
S'20160426'
p519
sg61
g1
(g74
g3
NtRp520
(dp521
g77
I-1
sg78
I-1
sg79
I-1
sg80
I-1
sg32
I-1
sg81
I-1
sg82
I-1
sbsg83
g1
(g74
g3
NtRp522
(dp523
g77
I97850
sg78
I728944
sg79
F15.140000000000001
sg80
F14.800000000000001
sg32
F15.09
sg81
F15.02
sg82
F15.019500000000001
sbsg25
g1
(g74
g3
NtRp524
(dp525
g77
I-1
sg78
I-1
sg79
I-1
sg80
I-1
sg32
I-1
sg81
I-1
sg82
I-1
sbsbssg128
I0
sg129
(dp526
sbasb.