ccopy_reg
_reconstructor
p0
(cmarketObjects
portfolio
p1
c__builtin__
object
p2
Ntp3
Rp4
(dp5
S'stocks'
p6
(lp7
g0
(cmarketObjects
stock
p8
g2
Ntp9
Rp10
(dp11
S'last'
p12
F71.66
sS'subscrIndex'
p13
I0
sS'subscribed'
p14
I00
sS'secType'
p15
S'STK'
p16
sS'industry'
p17
S'Financial'
p18
sS'contract'
p19
g0
(cib.ext.Contract
Contract
p20
g2
Ntp21
Rp22
(dp23
S'm_tradingClass'
p24
S'COF'
p25
sS'm_conId'
p26
I5941
sS'm_multiplier'
p27
NsS'm_symbol'
p28
S'COF'
p29
sS'm_secType'
p30
S'STK'
p31
sS'm_includeExpired'
p32
I00
sS'm_primaryExch'
p33
S'NYSE'
p34
sS'm_right'
p35
NsS'm_expiry'
p36
NsS'm_currency'
p37
S'USD'
p38
sS'm_localSymbol'
p39
S'COF'
p40
sS'm_exchange'
p41
S'SMART'
p42
sS'm_strike'
p43
F0.0
sbsS'options'
p44
(lp45
g0
(cmarketObjects
option
p46
g2
Ntp47
Rp48
(dp49
g12
F71.66
sS'expectedValue'
p50
I0
sg14
I00
sg15
S'OPT'
p51
sS'annualizedReturn'
p52
I0
sS'symbol'
p53
S'COF'
p54
sS'optType'
p55
S'PUT'
p56
sg19
g22
sS'expiry'
p57
NsS'impliedVolatility'
p58
I0
sS'underlying'
p59
g10
sS'maintenance'
p60
I0
sS'close'
p61
F71.34
sS'ask'
p62
F-1.0
sS'position'
p63
I0
sS'subscription'
p64
I01
sS'bid'
p65
F-1.0
sg13
I2
sS'strike'
p66
F0.0
sbag48
ag0
(g46
g2
Ntp67
Rp68
(dp69
g12
I0
sg50
I0
sg14
I00
sg15
g51
sg52
I0
sg53
S'COF'
p70
sg55
g56
sg19
g0
(g20
g2
Ntp71
Rp72
(dp73
g24
S'COF'
p74
sg26
I173833767
sg27
S'100'
p75
sg28
S'COF'
p76
sg30
S'OPT'
p77
sg32
I00
sg33
Nsg35
S'P'
p78
sg36
S'20170120'
p79
sg37
S'USD'
p80
sg39
S'COF   170120P00100000'
p81
sg41
S'SMART'
p82
sg43
F100.0
sbsg57
g79
sg58
I0
sg59
g10
sg60
I0
sg61
F29.76
sg62
F-1.0
sg63
I0
sg64
I01
sg65
F-1.0
sg13
I4
sg66
F100.0
sbag68
ag0
(g46
g2
Ntp83
Rp84
(dp85
g12
I0
sg50
I0
sg14
I00
sg15
g51
sg52
I0
sg53
S'COF'
p86
sg55
g56
sg19
g0
(g20
g2
Ntp87
Rp88
(dp89
g24
S'COF'
p90
sg26
I173833768
sg27
S'100'
p91
sg28
S'COF'
p92
sg30
S'OPT'
p93
sg32
I00
sg33
Nsg35
g78
sg36
S'20170120'
p94
sg37
S'USD'
p95
sg39
S'COF   170120P00105000'
p96
sg41
S'SMART'
p97
sg43
F105.0
sbsg57
g94
sg58
I0
sg59
g10
sg60
I0
sg61
F34.61
sg62
F-1.0
sg63
I0
sg64
I01
sg65
F-1.0
sg13
I6
sg66
F105.0
sbag84
ag0
(g46
g2
Ntp98
Rp99
(dp100
g12
I0
sg50
I0
sg14
I00
sg15
g51
sg52
I0
sg53
S'COF'
p101
sg55
g56
sg19
g0
(g20
g2
Ntp102
Rp103
(dp104
g24
S'COF'
p105
sg26
I173833773
sg27
S'100'
p106
sg28
S'COF'
p107
sg30
S'OPT'
p108
sg32
I00
sg33
Nsg35
g78
sg36
S'20170120'
p109
sg37
S'USD'
p110
sg39
S'COF   170120P00110000'
p111
sg41
S'SMART'
p112
sg43
F110.0
sbsg57
g109
sg58
I0
sg59
g10
sg60
I0
sg61
F39.52
sg62
F-1.0
sg63
I0
sg64
I01
sg65
F-1.0
sg13
I8
sg66
F110.0
sbag99
ag0
(g46
g2
Ntp113
Rp114
(dp115
g12
I0
sg50
I0
sg14
I00
sg15
g51
sg52
I0
sg53
S'COF'
p116
sg55
g56
sg19
g0
(g20
g2
Ntp117
Rp118
(dp119
g24
S'COF'
p120
sg26
I173833779
sg27
S'100'
p121
sg28
S'COF'
p122
sg30
S'OPT'
p123
sg32
I00
sg33
Nsg35
g78
sg36
S'20170120'
p124
sg37
S'USD'
p125
sg39
S'COF   170120P00115000'
p126
sg41
S'SMART'
p127
sg43
F115.0
sbsg57
g124
sg58
I0
sg59
g10
sg60
I0
sg61
F44.45
sg62
F-1.0
sg63
I0
sg64
I01
sg65
F-1.0
sg13
I10
sg66
F115.0
sbag114
ag0
(g46
g2
Ntp128
Rp129
(dp130
g12
I0
sg50
I0
sg14
I00
sg15
g51
sg52
I0
sg53
S'COF'
p131
sg55
g56
sg19
g0
(g20
g2
Ntp132
Rp133
(dp134
g24
S'COF'
p135
sg26
I173833782
sg27
S'100'
p136
sg28
S'COF'
p137
sg30
S'OPT'
p138
sg32
I00
sg33
Nsg35
g78
sg36
S'20170120'
p139
sg37
S'USD'
p140
sg39
S'COF   170120P00120000'
p141
sg41
S'SMART'
p142
sg43
F120.0
sbsg57
g139
sg58
I0
sg59
g10
sg60
I0
sg61
F49.4
sg62
F-1.0
sg63
I0
sg64
I01
sg65
F-1.0
sg13
I12
sg66
F120.0
sbag129
ag0
(g46
g2
Ntp143
Rp144
(dp145
g12
I0
sg50
I0
sg14
I00
sg15
g51
sg52
I0
sg53
S'COF'
p146
sg55
g56
sg19
g0
(g20
g2
Ntp147
Rp148
(dp149
g24
S'COF'
p150
sg26
I173833785
sg27
S'100'
p151
sg28
S'COF'
p152
sg30
S'OPT'
p153
sg32
I00
sg33
Nsg35
g78
sg36
S'20170120'
p154
sg37
S'USD'
p155
sg39
S'COF   170120P00045000'
p156
sg41
S'SMART'
p157
sg43
F45.0
sbsg57
g154
sg58
I0
sg59
g10
sg60
I0
sg61
F0.75
sg62
F-1.0
sg63
I0
sg64
I01
sg65
F-1.0
sg13
I14
sg66
F45.0
sbag144
ag0
(g46
g2
Ntp158
Rp159
(dp160
g12
F1.08
sg50
I0
sg14
I00
sg15
g51
sg52
I0
sg53
S'COF'
p161
sg55
g56
sg19
g0
(g20
g2
Ntp162
Rp163
(dp164
g24
S'COF'
p165
sg26
I173833788
sg27
S'100'
p166
sg28
S'COF'
p167
sg30
S'OPT'
p168
sg32
I00
sg33
Nsg35
g78
sg36
S'20170120'
p169
sg37
S'USD'
p170
sg39
S'COF   170120P00050000'
p171
sg41
S'SMART'
p172
sg43
F50.0
sbsg57
g169
sg58
I0
sg59
g10
sg60
I0
sg61
F1.2
sg62
F-1.0
sg63
I0
sg64
I01
sg65
F-1.0
sg13
I16
sg66
F50.0
sbag159
ag0
(g46
g2
Ntp173
Rp174
(dp175
g12
F1.69
sg50
I0
sg14
I00
sg15
g51
sg52
I0
sg53
S'COF'
p176
sg55
g56
sg19
g0
(g20
g2
Ntp177
Rp178
(dp179
g24
S'COF'
p180
sg26
I173833793
sg27
S'100'
p181
sg28
S'COF'
p182
sg30
S'OPT'
p183
sg32
I00
sg33
Nsg35
g78
sg36
S'20170120'
p184
sg37
S'USD'
p185
sg39
S'COF   170120P00055000'
p186
sg41
S'SMART'
p187
sg43
F55.0
sbsg57
g184
sg58
I0
sg59
g10
sg60
I0
sg61
F1.84
sg62
F-1.0
sg63
I0
sg64
I01
sg65
F-1.0
sg13
I18
sg66
F55.0
sbag174
ag0
(g46
g2
Ntp188
Rp189
(dp190
g12
F2.54
sg50
I0
sg14
I00
sg15
g51
sg52
I0
sg53
S'COF'
p191
sg55
g56
sg19
g0
(g20
g2
Ntp192
Rp193
(dp194
g24
S'COF'
p195
sg26
I173833796
sg27
S'100'
p196
sg28
S'COF'
p197
sg30
S'OPT'
p198
sg32
I00
sg33
Nsg35
g78
sg36
S'20170120'
p199
sg37
S'USD'
p200
sg39
S'COF   170120P00060000'
p201
sg41
S'SMART'
p202
sg43
F60.0
sbsg57
g199
sg58
I0
sg59
g10
sg60
I0
sg61
F2.64
sg62
F-1.0
sg63
I0
sg64
I01
sg65
F-1.0
sg13
I20
sg66
F60.0
sbag189
ag0
(g46
g2
Ntp203
Rp204
(dp205
g12
F3.8
sg50
I0
sg14
I00
sg15
g51
sg52
I0
sg53
S'COF'
p206
sg55
g56
sg19
g0
(g20
g2
Ntp207
Rp208
(dp209
g24
S'COF'
p210
sg26
I173833803
sg27
S'100'
p211
sg28
S'COF'
p212
sg30
S'OPT'
p213
sg32
I00
sg33
Nsg35
g78
sg36
S'20170120'
p214
sg37
S'USD'
p215
sg39
S'COF   170120P00065000'
p216
sg41
S'SMART'
p217
sg43
F65.0
sbsg57
g214
sg58
I0
sg59
g10
sg60
I0
sg61
F4.01
sg62
I0
sg63
I0
sg64
I01
sg65
I0
sg13
I22
sg66
F65.0
sbag204
ag0
(g46
g2
Ntp218
Rp219
(dp220
g12
F5.75
sg50
I0
sg14
I00
sg15
g51
sg52
I0
sg53
S'COF'
p221
sg55
g56
sg19
g0
(g20
g2
Ntp222
Rp223
(dp224
g24
S'COF'
p225
sg26
I173833806
sg27
S'100'
p226
sg28
S'COF'
p227
sg30
S'OPT'
p228
sg32
I00
sg33
Nsg35
g78
sg36
S'20170120'
p229
sg37
S'USD'
p230
sg39
S'COF   170120P00070000'
p231
sg41
S'SMART'
p232
sg43
F70.0
sbsg57
g229
sg58
I0
sg59
g10
sg60
I0
sg61
F5.94
sg62
F-1.0
sg63
I0
sg64
I01
sg65
F-1.0
sg13
I24
sg66
F70.0
sbag219
ag0
(g46
g2
Ntp233
Rp234
(dp235
g12
I0
sg50
I0
sg14
I00
sg15
g51
sg52
I0
sg53
S'COF'
p236
sg55
g56
sg19
g0
(g20
g2
Ntp237
Rp238
(dp239
g24
S'COF'
p240
sg26
I173833808
sg27
S'100'
p241
sg28
S'COF'
p242
sg30
S'OPT'
p243
sg32
I00
sg33
Nsg35
g78
sg36
S'20170120'
p244
sg37
S'USD'
p245
sg39
S'COF   170120P00072500'
p246
sg41
S'SMART'
p247
sg43
F72.5
sbsg57
g244
sg58
I0
sg59
g10
sg60
I0
sg61
F7.14
sg62
F-1.0
sg63
I0
sg64
I01
sg65
F-1.0
sg13
I26
sg66
F72.5
sbag234
ag0
(g46
g2
Ntp248
Rp249
(dp250
g12
F8.45
sg50
I0
sg14
I00
sg15
g51
sg52
I0
sg53
S'COF'
p251
sg55
g56
sg19
g0
(g20
g2
Ntp252
Rp253
(dp254
g24
S'COF'
p255
sg26
I173833813
sg27
S'100'
p256
sg28
S'COF'
p257
sg30
S'OPT'
p258
sg32
I00
sg33
Nsg35
g78
sg36
S'20170120'
p259
sg37
S'USD'
p260
sg39
S'COF   170120P00075000'
p261
sg41
S'SMART'
p262
sg43
F75.0
sbsg57
g259
sg58
I0
sg59
g10
sg60
I0
sg61
F8.52
sg62
I0
sg63
I0
sg64
I01
sg65
I0
sg13
I28
sg66
F75.0
sbag249
ag0
(g46
g2
Ntp263
Rp264
(dp265
g12
I0
sg50
I0
sg14
I00
sg15
g51
sg52
I0
sg53
S'COF'
p266
sg55
g56
sg19
g0
(g20
g2
Ntp267
Rp268
(dp269
g24
S'COF'
p270
sg26
I173833818
sg27
S'100'
p271
sg28
S'COF'
p272
sg30
S'OPT'
p273
sg32
I00
sg33
Nsg35
g78
sg36
S'20170120'
p274
sg37
S'USD'
p275
sg39
S'COF   170120P00077500'
p276
sg41
S'SMART'
p277
sg43
F77.5
sbsg57
g274
sg58
I0
sg59
g10
sg60
I0
sg61
F10.1
sg62
F-1.0
sg63
I0
sg64
I01
sg65
F-1.0
sg13
I30
sg66
F77.5
sbag264
ag0
(g46
g2
Ntp278
Rp279
(dp280
g12
F11.78
sg50
I0
sg14
I00
sg15
g51
sg52
I0
sg53
S'COF'
p281
sg55
g56
sg19
g0
(g20
g2
Ntp282
Rp283
(dp284
g24
S'COF'
p285
sg26
I173833823
sg27
S'100'
p286
sg28
S'COF'
p287
sg30
S'OPT'
p288
sg32
I00
sg33
Nsg35
g78
sg36
S'20170120'
p289
sg37
S'USD'
p290
sg39
S'COF   170120P00080000'
p291
sg41
S'SMART'
p292
sg43
F80.0
sbsg57
g289
sg58
I0
sg59
g10
sg60
I0
sg61
F11.87
sg62
F-1.0
sg63
I0
sg64
I01
sg65
F-1.0
sg13
I32
sg66
F80.0
sbag279
ag0
(g46
g2
Ntp293
Rp294
(dp295
g12
I0
sg50
I0
sg14
I00
sg15
g51
sg52
I0
sg53
S'COF'
p296
sg55
g56
sg19
g0
(g20
g2
Ntp297
Rp298
(dp299
g24
S'COF'
p300
sg26
I173833827
sg27
S'100'
p301
sg28
S'COF'
p302
sg30
S'OPT'
p303
sg32
I00
sg33
Nsg35
g78
sg36
S'20170120'
p304
sg37
S'USD'
p305
sg39
S'COF   170120P00082500'
p306
sg41
S'SMART'
p307
sg43
F82.5
sbsg57
g304
sg58
I0
sg59
g10
sg60
I0
sg61
F13.79
sg62
F-1.0
sg63
I0
sg64
I01
sg65
F-1.0
sg13
I34
sg66
F82.5
sbag294
ag0
(g46
g2
Ntp308
Rp309
(dp310
g12
I0
sg50
I0
sg14
I00
sg15
g51
sg52
I0
sg53
S'COF'
p311
sg55
g56
sg19
g0
(g20
g2
Ntp312
Rp313
(dp314
g24
S'COF'
p315
sg26
I173833830
sg27
S'100'
p316
sg28
S'COF'
p317
sg30
S'OPT'
p318
sg32
I00
sg33
Nsg35
g78
sg36
S'20170120'
p319
sg37
S'USD'
p320
sg39
S'COF   170120P00085000'
p321
sg41
S'SMART'
p322
sg43
F85.0
sbsg57
g319
sg58
I0
sg59
g10
sg60
I0
sg61
F15.81
sg62
F-1.0
sg63
I0
sg64
I01
sg65
F-1.0
sg13
I36
sg66
F85.0
sbag309
ag0
(g46
g2
Ntp323
Rp324
(dp325
g12
I0
sg50
I0
sg14
I00
sg15
g51
sg52
I0
sg53
S'COF'
p326
sg55
g56
sg19
g0
(g20
g2
Ntp327
Rp328
(dp329
g24
S'COF'
p330
sg26
I173833833
sg27
S'100'
p331
sg28
S'COF'
p332
sg30
S'OPT'
p333
sg32
I00
sg33
Nsg35
g78
sg36
S'20170120'
p334
sg37
S'USD'
p335
sg39
S'COF   170120P00087500'
p336
sg41
S'SMART'
p337
sg43
F87.5
sbsg57
g334
sg58
I0
sg59
g10
sg60
I0
sg61
I0
sg62
I0
sg63
I0
sg64
I01
sg65
I0
sg13
I38
sg66
F87.5
sbag324
ag0
(g46
g2
Ntp338
Rp339
(dp340
g12
I0
sg50
I0
sg14
I00
sg15
g51
sg52
I0
sg53
S'COF'
p341
sg55
g56
sg19
g0
(g20
g2
Ntp342
Rp343
(dp344
g24
S'COF'
p345
sg26
I173833836
sg27
S'100'
p346
sg28
S'COF'
p347
sg30
S'OPT'
p348
sg32
I00
sg33
Nsg35
g78
sg36
S'20170120'
p349
sg37
S'USD'
p350
sg39
S'COF   170120P00090000'
p351
sg41
S'SMART'
p352
sg43
F90.0
sbsg57
g349
sg58
I0
sg59
g10
sg60
I0
sg61
I0
sg62
I0
sg63
I0
sg64
I01
sg65
I0
sg13
I40
sg66
F90.0
sbag339
ag0
(g46
g2
Ntp353
Rp354
(dp355
g12
I0
sg50
I0
sg14
I00
sg15
g51
sg52
I0
sg53
S'COF'
p356
sg55
g56
sg19
g0
(g20
g2
Ntp357
Rp358
(dp359
g24
S'COF'
p360
sg26
I173833842
sg27
S'100'
p361
sg28
S'COF'
p362
sg30
S'OPT'
p363
sg32
I00
sg33
Nsg35
g78
sg36
S'20170120'
p364
sg37
S'USD'
p365
sg39
S'COF   170120P00095000'
p366
sg41
S'SMART'
p367
sg43
F95.0
sbsg57
g364
sg58
I0
sg59
g10
sg60
I0
sg61
F24.89
sg62
F-1.0
sg63
I0
sg64
I01
sg65
F-1.0
sg13
I42
sg66
F95.0
sbag354
ag0
(g46
g2
Ntp368
Rp369
(dp370
g12
I0
sg50
I0
sg14
I00
sg15
g51
sg52
I0
sg53
S'COF'
p371
sg55
g56
sg19
g0
(g20
g2
Ntp372
Rp373
(dp374
g24
S'COF'
p375
sg26
I182930790
sg27
S'100'
p376
sg28
S'COF'
p377
sg30
S'OPT'
p378
sg32
I00
sg33
Nsg35
g78
sg36
S'20170120'
p379
sg37
S'USD'
p380
sg39
S'COF   170120P00040000'
p381
sg41
S'SMART'
p382
sg43
F40.0
sbsg57
g379
sg58
I0
sg59
g10
sg60
I0
sg61
I0
sg62
I0
sg63
I0
sg64
I01
sg65
I0
sg13
I44
sg66
F40.0
sbag369
ag0
(g46
g2
Ntp383
Rp384
(dp385
g12
F4.75
sg50
I0
sg14
I00
sg15
g51
sg52
I0
sg53
S'COF'
p386
sg55
g56
sg19
g0
(g20
g2
Ntp387
Rp388
(dp389
g24
S'COF'
p390
sg26
I182930793
sg27
S'100'
p391
sg28
S'COF'
p392
sg30
S'OPT'
p393
sg32
I00
sg33
Nsg35
g78
sg36
S'20170120'
p394
sg37
S'USD'
p395
sg39
S'COF   170120P00067500'
p396
sg41
S'SMART'
p397
sg43
F67.5
sbsg57
g394
sg58
I0
sg59
g10
sg60
I0
sg61
F4.88
sg62
I0
sg63
I0
sg64
I01
sg65
I0
sg13
I46
sg66
F67.5
sbag384
ag0
(g46
g2
Ntp398
Rp399
(dp400
g12
I0
sg50
I0
sg14
I00
sg15
g51
sg52
I0
sg53
S'COF'
p401
sg55
g56
sg19
g0
(g20
g2
Ntp402
Rp403
(dp404
g24
S'COF'
p405
sg26
I190623391
sg27
S'100'
p406
sg28
S'COF'
p407
sg30
S'OPT'
p408
sg32
I00
sg33
Nsg35
g78
sg36
S'20170120'
p409
sg37
S'USD'
p410
sg39
S'COF   170120P00092500'
p411
sg41
S'SMART'
p412
sg43
F92.5
sbsg57
g409
sg58
I0
sg59
g10
sg60
I0
sg61
F22.58
sg62
F-1.0
sg63
I0
sg64
I01
sg65
F-1.0
sg13
I48
sg66
F92.5
sbag399
ag0
(g46
g2
Ntp413
Rp414
(dp415
g12
I0
sg50
I0
sg14
I00
sg15
g51
sg52
I0
sg53
S'COF'
p416
sg55
g56
sg19
g0
(g20
g2
Ntp417
Rp418
(dp419
g24
S'COF'
p420
sg26
I197222240
sg27
S'100'
p421
sg28
S'COF'
p422
sg30
S'OPT'
p423
sg32
I00
sg33
Nsg35
g78
sg36
S'20170120'
p424
sg37
S'USD'
p425
sg39
S'COF   170120P00097500'
p426
sg41
S'SMART'
p427
sg43
F97.5
sbsg57
g424
sg58
I0
sg59
g10
sg60
I0
sg61
F27.31
sg62
I0
sg63
I0
sg64
I01
sg65
I0
sg13
I50
sg66
F97.5
sbag414
ag0
(g46
g2
Ntp428
Rp429
(dp430
g12
I0
sg50
I0
sg14
I00
sg15
g51
sg52
I0
sg53
S'COF'
p431
sg55
g56
sg19
g0
(g20
g2
Ntp432
Rp433
(dp434
g24
S'COF'
p435
sg26
I199209259
sg27
S'100'
p436
sg28
S'COF'
p437
sg30
S'OPT'
p438
sg32
I00
sg33
Nsg35
g78
sg36
S'20170120'
p439
sg37
S'USD'
p440
sg39
S'COF   170120P00125000'
p441
sg41
S'SMART'
p442
sg43
F125.0
sbsg57
g439
sg58
I0
sg59
g10
sg60
I0
sg61
F54.36
sg62
I0
sg63
I0
sg64
I01
sg65
I0
sg13
I52
sg66
F125.0
sbag429
ag0
(g46
g2
Ntp443
Rp444
(dp445
g12
F3.15
sg50
I0
sg14
I00
sg15
g51
sg52
I0
sg53
S'COF'
p446
sg55
g56
sg19
g0
(g20
g2
Ntp447
Rp448
(dp449
g24
S'COF'
p450
sg26
I208483862
sg27
S'100'
p451
sg28
S'COF'
p452
sg30
S'OPT'
p453
sg32
I00
sg33
Nsg35
g78
sg36
S'20170120'
p454
sg37
S'USD'
p455
sg39
S'COF   170120P00062500'
p456
sg41
S'SMART'
p457
sg43
F62.5
sbsg57
g454
sg58
I0
sg59
g10
sg60
I0
sg61
F3.24
sg62
I0
sg63
I0
sg64
I01
sg65
I0
sg13
I54
sg66
F62.5
sbag444
ag0
(g46
g2
Ntp458
Rp459
(dp460
g12
I0
sg50
I0
sg14
I00
sg15
g51
sg52
I0
sg53
S'COF'
p461
sg55
g56
sg19
g0
(g20
g2
Ntp462
Rp463
(dp464
g24
S'COF'
p465
sg26
I209939566
sg27
S'100'
p466
sg28
S'COF'
p467
sg30
S'OPT'
p468
sg32
I00
sg33
Nsg35
g78
sg36
S'20160617'
p469
sg37
S'USD'
p470
sg39
S'COF   160617P00100000'
p471
sg41
S'SMART'
p472
sg43
F100.0
sbsg57
g469
sg58
I0
sg59
g10
sg60
I0
sg61
I0
sg62
I0
sg63
I0
sg64
I01
sg65
I0
sg13
I56
sg66
F100.0
sbag459
ag0
(g46
g2
Ntp473
Rp474
(dp475
g12
I0
sg50
I0
sg14
I00
sg15
g51
sg52
I0
sg53
S'COF'
p476
sg55
g56
sg19
g0
(g20
g2
Ntp477
Rp478
(dp479
g24
S'COF'
p480
sg26
I209939568
sg27
S'100'
p481
sg28
S'COF'
p482
sg30
S'OPT'
p483
sg32
I00
sg33
Nsg35
g78
sg36
S'20160617'
p484
sg37
S'USD'
p485
sg39
S'COF   160617P00105000'
p486
sg41
S'SMART'
p487
sg43
F105.0
sbsg57
g484
sg58
I0
sg59
g10
sg60
I0
sg61
F34.04
sg62
F-1.0
sg63
I0
sg64
I01
sg65
F-1.0
sg13
I58
sg66
F105.0
sbag474
ag0
(g46
g2
Ntp488
Rp489
(dp490
g12
I0
sg50
I0
sg14
I00
sg15
g51
sg52
I0
sg53
S'COF'
p491
sg55
g56
sg19
g0
(g20
g2
Ntp492
Rp493
(dp494
g24
S'COF'
p495
sg26
I209939573
sg27
S'100'
p496
sg28
S'COF'
p497
sg30
S'OPT'
p498
sg32
I00
sg33
Nsg35
g78
sg36
S'20160617'
p499
sg37
S'USD'
p500
sg39
S'COF   160617P00110000'
p501
sg41
S'SMART'
p502
sg43
F110.0
sbsg57
g499
sg58
I0
sg59
g10
sg60
I0
sg61
F39.04
sg62
F-1.0
sg63
I0
sg64
I01
sg65
F-1.0
sg13
I60
sg66
F110.0
sbag489
ag0
(g46
g2
Ntp503
Rp504
(dp505
g12
F0.11
sg50
I0
sg14
I00
sg15
g51
sg52
I0
sg53
S'COF'
p506
sg55
g56
sg19
g0
(g20
g2
Ntp507
Rp508
(dp509
g24
S'COF'
p510
sg26
I209939578
sg27
S'100'
p511
sg28
S'COF'
p512
sg30
S'OPT'
p513
sg32
I00
sg33
Nsg35
g78
sg36
S'20160617'
p514
sg37
S'USD'
p515
sg39
S'COF   160617P00050000'
p516
sg41
S'SMART'
p517
sg43
F50.0
sbsg57
g514
sg58
I0
sg59
g10
sg60
I0
sg61
I0
sg62
I0
sg63
I0
sg64
I01
sg65
I0
sg13
I62
sg66
F50.0
sbag504
ag0
(g46
g2
Ntp518
Rp519
(dp520
g12
I0
sg50
I0
sg14
I00
sg15
g51
sg52
I0
sg53
S'COF'
p521
sg55
g56
sg19
g0
(g20
g2
Ntp522
Rp523
(dp524
g24
S'COF'
p525
sg26
I209939583
sg27
S'100'
p526
sg28
S'COF'
p527
sg30
S'OPT'
p528
sg32
I00
sg33
Nsg35
g78
sg36
S'20160617'
p529
sg37
S'USD'
p530
sg39
S'COF   160617P00055000'
p531
sg41
S'SMART'
p532
sg43
F55.0
sbsg57
g529
sg58
I0
sg59
g10
sg60
I0
sg61
F0.24
sg62
F-1.0
sg63
I0
sg64
I01
sg65
F-1.0
sg13
I64
sg66
F55.0
sbag519
ag0
(g46
g2
Ntp533
Rp534
(dp535
g12
F0.4
sg50
I0
sg14
I00
sg15
g51
sg52
I0
sg53
S'COF'
p536
sg55
g56
sg19
g0
(g20
g2
Ntp537
Rp538
(dp539
g24
S'COF'
p540
sg26
I209939584
sg27
S'100'
p541
sg28
S'COF'
p542
sg30
S'OPT'
p543
sg32
I00
sg33
Nsg35
g78
sg36
S'20160617'
p544
sg37
S'USD'
p545
sg39
S'COF   160617P00060000'
p546
sg41
S'SMART'
p547
sg43
F60.0
sbsg57
g544
sg58
I0
sg59
g10
sg60
I0
sg61
F0.5
sg62
F-1.0
sg63
I0
sg64
I01
sg65
F-1.0
sg13
I66
sg66
F60.0
sbag534
ag0
(g46
g2
Ntp548
Rp549
(dp550
g12
F0.93
sg50
I0
sg14
I00
sg15
g51
sg52
I0
sg53
S'COF'
p551
sg55
g56
sg19
g0
(g20
g2
Ntp552
Rp553
(dp554
g24
S'COF'
p555
sg26
I209939589
sg27
S'100'
p556
sg28
S'COF'
p557
sg30
S'OPT'
p558
sg32
I00
sg33
Nsg35
g78
sg36
S'20160617'
p559
sg37
S'USD'
p560
sg39
S'COF   160617P00065000'
p561
sg41
S'SMART'
p562
sg43
F65.0
sbsg57
g559
sg58
I0
sg59
g10
sg60
I0
sg61
F1.02
sg62
F-1.0
sg63
I0
sg64
I01
sg65
F-1.0
sg13
I68
sg66
F65.0
sbag549
ag0
(g46
g2
Ntp563
Rp564
(dp565
g12
F1.43
sg50
I0
sg14
I00
sg15
g51
sg52
I0
sg53
S'COF'
p566
sg55
g56
sg19
g0
(g20
g2
Ntp567
Rp568
(dp569
g24
S'COF'
p570
sg26
I209939594
sg27
S'100'
p571
sg28
S'COF'
p572
sg30
S'OPT'
p573
sg32
I00
sg33
Nsg35
g78
sg36
S'20160617'
p574
sg37
S'USD'
p575
sg39
S'COF   160617P00067500'
p576
sg41
S'SMART'
p577
sg43
F67.5
sbsg57
g574
sg58
I0
sg59
g10
sg60
I0
sg61
F1.55
sg62
F-1.0
sg63
I0
sg64
I01
sg65
F-1.0
sg13
I70
sg66
F67.5
sbag564
ag0
(g46
g2
Ntp578
Rp579
(dp580
g12
I0
sg50
I0
sg14
I00
sg15
g51
sg52
I0
sg53
S'COF'
p581
sg55
g56
sg19
g0
(g20
g2
Ntp582
Rp583
(dp584
g24
S'COF'
p585
sg26
I209939599
sg27
S'100'
p586
sg28
S'COF'
p587
sg30
S'OPT'
p588
sg32
I00
sg33
Nsg35
g78
sg36
S'20160617'
p589
sg37
S'USD'
p590
sg39
S'COF   160617P00070000'
p591
sg41
S'SMART'
p592
sg43
F70.0
sbsg57
g589
sg58
I0
sg59
g10
sg60
I0
sg61
F2.36
sg62
F-1.0
sg63
I0
sg64
I01
sg65
F-1.0
sg13
I72
sg66
F70.0
sbag579
ag0
(g46
g2
Ntp593
Rp594
(dp595
g12
F3.35
sg50
I0
sg14
I00
sg15
g51
sg52
I0
sg53
S'COF'
p596
sg55
g56
sg19
g0
(g20
g2
Ntp597
Rp598
(dp599
g24
S'COF'
p600
sg26
I209939601
sg27
S'100'
p601
sg28
S'COF'
p602
sg30
S'OPT'
p603
sg32
I00
sg33
Nsg35
g78
sg36
S'20160617'
p604
sg37
S'USD'
p605
sg39
S'COF   160617P00072500'
p606
sg41
S'SMART'
p607
sg43
F72.5
sbsg57
g604
sg58
I0
sg59
g10
sg60
I0
sg61
F3.54
sg62
F-1.0
sg63
I0
sg64
I01
sg65
F-1.0
sg13
I74
sg66
F72.5
sbag594
ag0
(g46
g2
Ntp608
Rp609
(dp610
g12
I0
sg50
I0
sg14
I00
sg15
g51
sg52
I0
sg53
S'COF'
p611
sg55
g56
sg19
g0
(g20
g2
Ntp612
Rp613
(dp614
g24
S'COF'
p615
sg26
I209939604
sg27
S'100'
p616
sg28
S'COF'
p617
sg30
S'OPT'
p618
sg32
I00
sg33
Nsg35
g78
sg36
S'20160617'
p619
sg37
S'USD'
p620
sg39
S'COF   160617P00075000'
p621
sg41
S'SMART'
p622
sg43
F75.0
sbsg57
g619
sg58
I0
sg59
g10
sg60
I0
sg61
F5.11
sg62
F-1.0
sg63
I0
sg64
I01
sg65
F-1.0
sg13
I76
sg66
F75.0
sbag609
ag0
(g46
g2
Ntp623
Rp624
(dp625
g12
I0
sg50
I0
sg14
I00
sg15
g51
sg52
I0
sg53
S'COF'
p626
sg55
g56
sg19
g0
(g20
g2
Ntp627
Rp628
(dp629
g24
S'COF'
p630
sg26
I209939611
sg27
S'100'
p631
sg28
S'COF'
p632
sg30
S'OPT'
p633
sg32
I00
sg33
Nsg35
g78
sg36
S'20160617'
p634
sg37
S'USD'
p635
sg39
S'COF   160617P00077500'
p636
sg41
S'SMART'
p637
sg43
F77.5
sbsg57
g634
sg58
I0
sg59
g10
sg60
I0
sg61
F7.04
sg62
F-1.0
sg63
I0
sg64
I01
sg65
F-1.0
sg13
I78
sg66
F77.5
sbag624
ag0
(g46
g2
Ntp638
Rp639
(dp640
g12
I0
sg50
I0
sg14
I00
sg15
g51
sg52
I0
sg53
S'COF'
p641
sg55
g56
sg19
g0
(g20
g2
Ntp642
Rp643
(dp644
g24
S'COF'
p645
sg26
I209939614
sg27
S'100'
p646
sg28
S'COF'
p647
sg30
S'OPT'
p648
sg32
I00
sg33
Nsg35
g78
sg36
S'20160617'
p649
sg37
S'USD'
p650
sg39
S'COF   160617P00080000'
p651
sg41
S'SMART'
p652
sg43
F80.0
sbsg57
g649
sg58
I0
sg59
g10
sg60
I0
sg61
F9.32
sg62
F-1.0
sg63
I0
sg64
I01
sg65
F-1.0
sg13
I80
sg66
F80.0
sbag639
ag0
(g46
g2
Ntp653
Rp654
(dp655
g12
I0
sg50
I0
sg14
I00
sg15
g51
sg52
I0
sg53
S'COF'
p656
sg55
g56
sg19
g0
(g20
g2
Ntp657
Rp658
(dp659
g24
S'COF'
p660
sg26
I209939618
sg27
S'100'
p661
sg28
S'COF'
p662
sg30
S'OPT'
p663
sg32
I00
sg33
Nsg35
g78
sg36
S'20160617'
p664
sg37
S'USD'
p665
sg39
S'COF   160617P00082500'
p666
sg41
S'SMART'
p667
sg43
F82.5
sbsg57
g664
sg58
I0
sg59
g10
sg60
I0
sg61
F11.64
sg62
F-1.0
sg63
I0
sg64
I01
sg65
F-1.0
sg13
I82
sg66
F82.5
sbag654
ag0
(g46
g2
Ntp668
Rp669
(dp670
g12
I0
sg50
I0
sg14
I00
sg15
g51
sg52
I0
sg53
S'COF'
p671
sg55
g56
sg19
g0
(g20
g2
Ntp672
Rp673
(dp674
g24
S'COF'
p675
sg26
I209939623
sg27
S'100'
p676
sg28
S'COF'
p677
sg30
S'OPT'
p678
sg32
I00
sg33
Nsg35
g78
sg36
S'20160617'
p679
sg37
S'USD'
p680
sg39
S'COF   160617P00085000'
p681
sg41
S'SMART'
p682
sg43
F85.0
sbsg57
g679
sg58
I0
sg59
g10
sg60
I0
sg61
I0
sg62
I0
sg63
I0
sg64
I01
sg65
I0
sg13
I84
sg66
F85.0
sbag669
ag0
(g46
g2
Ntp683
Rp684
(dp685
g12
I0
sg50
I0
sg14
I00
sg15
g51
sg52
I0
sg53
S'COF'
p686
sg55
g56
sg19
g0
(g20
g2
Ntp687
Rp688
(dp689
g24
S'COF'
p690
sg26
I209939624
sg27
S'100'
p691
sg28
S'COF'
p692
sg30
S'OPT'
p693
sg32
I00
sg33
Nsg35
g78
sg36
S'20160617'
p694
sg37
S'USD'
p695
sg39
S'COF   160617P00090000'
p696
sg41
S'SMART'
p697
sg43
F90.0
sbsg57
g694
sg58
I0
sg59
g10
sg60
I0
sg61
F19.06
sg62
F-1.0
sg63
I0
sg64
I01
sg65
F-1.0
sg13
I86
sg66
F90.0
sbag684
ag0
(g46
g2
Ntp698
Rp699
(dp700
g12
I0
sg50
I0
sg14
I00
sg15
g51
sg52
I0
sg53
S'COF'
p701
sg55
g56
sg19
g0
(g20
g2
Ntp702
Rp703
(dp704
g24
S'COF'
p705
sg26
I209939629
sg27
S'100'
p706
sg28
S'COF'
p707
sg30
S'OPT'
p708
sg32
I00
sg33
Nsg35
g78
sg36
S'20160617'
p709
sg37
S'USD'
p710
sg39
S'COF   160617P00095000'
p711
sg41
S'SMART'
p712
sg43
F95.0
sbsg57
g709
sg58
I0
sg59
g10
sg60
I0
sg61
F24.05
sg62
F-1.0
sg63
I0
sg64
I01
sg65
F-1.0
sg13
I88
sg66
F95.0
sbag699
ag0
(g46
g2
Ntp713
Rp714
(dp715
g12
I0
sg50
I0
sg14
I00
sg15
g51
sg52
I0
sg53
S'COF'
p716
sg55
g56
sg19
g0
(g20
g2
Ntp717
Rp718
(dp719
g24
S'COF'
p720
sg26
I210825376
sg27
S'100'
p721
sg28
S'COF'
p722
sg30
S'OPT'
p723
sg32
I00
sg33
Nsg35
g78
sg36
S'20160617'
p724
sg37
S'USD'
p725
sg39
S'COF   160617P00040000'
p726
sg41
S'SMART'
p727
sg43
F40.0
sbsg57
g724
sg58
I0
sg59
g10
sg60
I0
sg61
F0.04
sg62
F-1.0
sg63
I0
sg64
I01
sg65
F-1.0
sg13
I90
sg66
F40.0
sbag714
ag0
(g46
g2
Ntp728
Rp729
(dp730
g12
I0
sg50
I0
sg14
I00
sg15
g51
sg52
I0
sg53
S'COF'
p731
sg55
g56
sg19
g0
(g20
g2
Ntp732
Rp733
(dp734
g24
S'COF'
p735
sg26
I210825381
sg27
S'100'
p736
sg28
S'COF'
p737
sg30
S'OPT'
p738
sg32
I00
sg33
Nsg35
g78
sg36
S'20160617'
p739
sg37
S'USD'
p740
sg39
S'COF   160617P00045000'
p741
sg41
S'SMART'
p742
sg43
F45.0
sbsg57
g739
sg58
I0
sg59
g10
sg60
I0
sg61
F0.1
sg62
F-1.0
sg63
I0
sg64
I01
sg65
F-1.0
sg13
I92
sg66
F45.0
sbag729
ag0
(g46
g2
Ntp743
Rp744
(dp745
g12
I0
sg50
I0
sg14
I00
sg15
g51
sg52
I0
sg53
S'COF'
p746
sg55
g56
sg19
g0
(g20
g2
Ntp747
Rp748
(dp749
g24
S'COF'
p750
sg26
I211040221
sg27
S'100'
p751
sg28
S'COF'
p752
sg30
S'OPT'
p753
sg32
I00
sg33
Nsg35
g78
sg36
S'20160617'
p754
sg37
S'USD'
p755
sg39
S'COF   160617P00087500'
p756
sg41
S'SMART'
p757
sg43
F87.5
sbsg57
g754
sg58
I0
sg59
g10
sg60
I0
sg61
F16.58
sg62
F-1.0
sg63
I0
sg64
I01
sg65
F-1.0
sg13
I94
sg66
F87.5
sbag744
ag0
(g46
g2
Ntp758
Rp759
(dp760
g12
I0
sg50
I0
sg14
I00
sg15
g51
sg52
I0
sg53
S'COF'
p761
sg55
g56
sg19
g0
(g20
g2
Ntp762
Rp763
(dp764
g24
S'COF'
p765
sg26
I212592555
sg27
S'100'
p766
sg28
S'COF'
p767
sg30
S'OPT'
p768
sg32
I00
sg33
Nsg35
g78
sg36
S'20180119'
p769
sg37
S'USD'
p770
sg39
S'COF   180119P00100000'
p771
sg41
S'SMART'
p772
sg43
F100.0
sbsg57
g769
sg58
I0
sg59
g10
sg60
I0
sg61
I0
sg62
I0
sg63
I0
sg64
I01
sg65
I0
sg13
I96
sg66
F100.0
sbag759
ag0
(g46
g2
Ntp773
Rp774
(dp775
g12
I0
sg50
I0
sg14
I00
sg15
g51
sg52
I0
sg53
S'COF'
p776
sg55
g56
sg19
g0
(g20
g2
Ntp777
Rp778
(dp779
g24
S'COF'
p780
sg26
I212592558
sg27
S'100'
p781
sg28
S'COF'
p782
sg30
S'OPT'
p783
sg32
I00
sg33
Nsg35
g78
sg36
S'20180119'
p784
sg37
S'USD'
p785
sg39
S'COF   180119P00105000'
p786
sg41
S'SMART'
p787
sg43
F105.0
sbsg57
g784
sg58
I0
sg59
g10
sg60
I0
sg61
F35.67
sg62
F-1.0
sg63
I0
sg64
I01
sg65
F-1.0
sg13
I98
sg66
F105.0
sbag774
ag0
(g46
g2
Ntp788
Rp789
(dp790
g12
I0
sg50
I0
sg14
I00
sg15
g51
sg52
I0
sg53
S'COF'
p791
sg55
g56
sg19
g0
(g20
g2
Ntp792
Rp793
(dp794
g24
S'COF'
p795
sg26
I212592560
sg27
S'100'
p796
sg28
S'COF'
p797
sg30
S'OPT'
p798
sg32
I00
sg33
Nsg35
g78
sg36
S'20180119'
p799
sg37
S'USD'
p800
sg39
S'COF   180119P00055000'
p801
sg41
S'SMART'
p802
sg43
F55.0
sbsg57
g799
sg58
I0
sg59
g10
sg60
I0
sg61
I0
sg62
I0
sg63
I0
sg64
I01
sg65
I0
sg13
I100
sg66
F55.0
sbag789
ag0
(g46
g2
Ntp803
Rp804
(dp805
g12
I0
sg50
I0
sg14
I00
sg15
g51
sg52
I0
sg53
S'COF'
p806
sg55
g56
sg19
g0
(g20
g2
Ntp807
Rp808
(dp809
g24
S'COF'
p810
sg26
I212592565
sg27
S'100'
p811
sg28
S'COF'
p812
sg30
S'OPT'
p813
sg32
I00
sg33
Nsg35
g78
sg36
S'20180119'
p814
sg37
S'USD'
p815
sg39
S'COF   180119P00060000'
p816
sg41
S'SMART'
p817
sg43
F60.0
sbsg57
g814
sg58
I0
sg59
g10
sg60
I0
sg61
F5.69
sg62
F-1.0
sg63
I0
sg64
I01
sg65
F-1.0
sg13
I102
sg66
F60.0
sbag804
ag0
(g46
g2
Ntp818
Rp819
(dp820
g12
I0
sg50
I0
sg14
I00
sg15
g51
sg52
I0
sg53
S'COF'
p821
sg55
g56
sg19
g0
(g20
g2
Ntp822
Rp823
(dp824
g24
S'COF'
p825
sg26
I212592570
sg27
S'100'
p826
sg28
S'COF'
p827
sg30
S'OPT'
p828
sg32
I00
sg33
Nsg35
g78
sg36
S'20180119'
p829
sg37
S'USD'
p830
sg39
S'COF   180119P00065000'
p831
sg41
S'SMART'
p832
sg43
F65.0
sbsg57
g829
sg58
I0
sg59
g10
sg60
I0
sg61
F7.51
sg62
F-1.0
sg63
I0
sg64
I01
sg65
F-1.0
sg13
I104
sg66
F65.0
sbag819
ag0
(g46
g2
Ntp833
Rp834
(dp835
g12
F9.62
sg50
I0
sg14
I00
sg15
g51
sg52
I0
sg53
S'COF'
p836
sg55
g56
sg19
g0
(g20
g2
Ntp837
Rp838
(dp839
g24
S'COF'
p840
sg26
I212592575
sg27
S'100'
p841
sg28
S'COF'
p842
sg30
S'OPT'
p843
sg32
I00
sg33
Nsg35
g78
sg36
S'20180119'
p844
sg37
S'USD'
p845
sg39
S'COF   180119P00070000'
p846
sg41
S'SMART'
p847
sg43
F70.0
sbsg57
g844
sg58
I0
sg59
g10
sg60
I0
sg61
F9.77
sg62
F-1.0
sg63
I0
sg64
I01
sg65
F-1.0
sg13
I106
sg66
F70.0
sbag834
ag0
(g46
g2
Ntp848
Rp849
(dp850
g12
I0
sg50
I0
sg14
I00
sg15
g51
sg52
I0
sg53
S'COF'
p851
sg55
g56
sg19
g0
(g20
g2
Ntp852
Rp853
(dp854
g24
S'COF'
p855
sg26
I212592578
sg27
S'100'
p856
sg28
S'COF'
p857
sg30
S'OPT'
p858
sg32
I00
sg33
Nsg35
g78
sg36
S'20180119'
p859
sg37
S'USD'
p860
sg39
S'COF   180119P00072500'
p861
sg41
S'SMART'
p862
sg43
F72.5
sbsg57
g859
sg58
I0
sg59
g10
sg60
I0
sg61
F11.09
sg62
F-1.0
sg63
I0
sg64
I01
sg65
F-1.0
sg13
I108
sg66
F72.5
sbag849
ag0
(g46
g2
Ntp863
Rp864
(dp865
g12
I0
sg50
I0
sg14
I00
sg15
g51
sg52
I0
sg53
S'COF'
p866
sg55
g56
sg19
g0
(g20
g2
Ntp867
Rp868
(dp869
g24
S'COF'
p870
sg26
I212592583
sg27
S'100'
p871
sg28
S'COF'
p872
sg30
S'OPT'
p873
sg32
I00
sg33
Nsg35
g78
sg36
S'20180119'
p874
sg37
S'USD'
p875
sg39
S'COF   180119P00075000'
p876
sg41
S'SMART'
p877
sg43
F75.0
sbsg57
g874
sg58
I0
sg59
g10
sg60
I0
sg61
F12.45
sg62
F-1.0
sg63
I0
sg64
I01
sg65
F-1.0
sg13
I110
sg66
F75.0
sbag864
ag0
(g46
g2
Ntp878
Rp879
(dp880
g12
I0
sg50
I0
sg14
I00
sg15
g51
sg52
I0
sg53
S'COF'
p881
sg55
g56
sg19
g0
(g20
g2
Ntp882
Rp883
(dp884
g24
S'COF'
p885
sg26
I212592584
sg27
S'100'
p886
sg28
S'COF'
p887
sg30
S'OPT'
p888
sg32
I00
sg33
Nsg35
g78
sg36
S'20180119'
p889
sg37
S'USD'
p890
sg39
S'COF   180119P00077500'
p891
sg41
S'SMART'
p892
sg43
F77.5
sbsg57
g889
sg58
I0
sg59
g10
sg60
I0
sg61
I0
sg62
I0
sg63
I0
sg64
I01
sg65
I0
sg13
I112
sg66
F77.5
sbag879
ag0
(g46
g2
Ntp893
Rp894
(dp895
g12
I0
sg50
I0
sg14
I00
sg15
g51
sg52
I0
sg53
S'COF'
p896
sg55
g56
sg19
g0
(g20
g2
Ntp897
Rp898
(dp899
g24
S'COF'
p900
sg26
I212592589
sg27
S'100'
p901
sg28
S'COF'
p902
sg30
S'OPT'
p903
sg32
I00
sg33
Nsg35
g78
sg36
S'20180119'
p904
sg37
S'USD'
p905
sg39
S'COF   180119P00080000'
p906
sg41
S'SMART'
p907
sg43
F80.0
sbsg57
g904
sg58
I0
sg59
g10
sg60
I0
sg61
F15.49
sg62
F-1.0
sg63
I0
sg64
I01
sg65
F-1.0
sg13
I114
sg66
F80.0
sbag894
ag0
(g46
g2
Ntp908
Rp909
(dp910
g12
I0
sg50
I0
sg14
I00
sg15
g51
sg52
I0
sg53
S'COF'
p911
sg55
g56
sg19
g0
(g20
g2
Ntp912
Rp913
(dp914
g24
S'COF'
p915
sg26
I212592595
sg27
S'100'
p916
sg28
S'COF'
p917
sg30
S'OPT'
p918
sg32
I00
sg33
Nsg35
g78
sg36
S'20180119'
p919
sg37
S'USD'
p920
sg39
S'COF   180119P00082500'
p921
sg41
S'SMART'
p922
sg43
F82.5
sbsg57
g919
sg58
I0
sg59
g10
sg60
I0
sg61
F17.13
sg62
F-1.0
sg63
I0
sg64
I01
sg65
F-1.0
sg13
I116
sg66
F82.5
sbag909
ag0
(g46
g2
Ntp923
Rp924
(dp925
g12
I0
sg50
I0
sg14
I00
sg15
g51
sg52
I0
sg53
S'COF'
p926
sg55
g56
sg19
g0
(g20
g2
Ntp927
Rp928
(dp929
g24
S'COF'
p930
sg26
I212592598
sg27
S'100'
p931
sg28
S'COF'
p932
sg30
S'OPT'
p933
sg32
I00
sg33
Nsg35
g78
sg36
S'20180119'
p934
sg37
S'USD'
p935
sg39
S'COF   180119P00085000'
p936
sg41
S'SMART'
p937
sg43
F85.0
sbsg57
g934
sg58
I0
sg59
g10
sg60
I0
sg61
F18.91
sg62
F-1.0
sg63
I0
sg64
I01
sg65
F-1.0
sg13
I118
sg66
F85.0
sbag924
ag0
(g46
g2
Ntp938
Rp939
(dp940
g12
I0
sg50
I0
sg14
I00
sg15
g51
sg52
I0
sg53
S'COF'
p941
sg55
g56
sg19
g0
(g20
g2
Ntp942
Rp943
(dp944
g24
S'COF'
p945
sg26
I212592604
sg27
S'100'
p946
sg28
S'COF'
p947
sg30
S'OPT'
p948
sg32
I00
sg33
Nsg35
g78
sg36
S'20180119'
p949
sg37
S'USD'
p950
sg39
S'COF   180119P00090000'
p951
sg41
S'SMART'
p952
sg43
F90.0
sbsg57
g949
sg58
I0
sg59
g10
sg60
I0
sg61
F22.67
sg62
F-1.0
sg63
I0
sg64
I01
sg65
F-1.0
sg13
I120
sg66
F90.0
sbag939
ag0
(g46
g2
Ntp953
Rp954
(dp955
g12
I0
sg50
I0
sg14
I00
sg15
g51
sg52
I0
sg53
S'COF'
p956
sg55
g56
sg19
g0
(g20
g2
Ntp957
Rp958
(dp959
g24
S'COF'
p960
sg26
I212592608
sg27
S'100'
p961
sg28
S'COF'
p962
sg30
S'OPT'
p963
sg32
I00
sg33
Nsg35
g78
sg36
S'20180119'
p964
sg37
S'USD'
p965
sg39
S'COF   180119P00095000'
p966
sg41
S'SMART'
p967
sg43
F95.0
sbsg57
g964
sg58
I0
sg59
g10
sg60
I0
sg61
I0
sg62
I0
sg63
I0
sg64
I01
sg65
I0
sg13
I122
sg66
F95.0
sbag954
ag0
(g46
g2
Ntp968
Rp969
(dp970
g12
I0
sg50
I0
sg14
I00
sg15
g51
sg52
I0
sg53
S'COF'
p971
sg55
g56
sg19
g0
(g20
g2
Ntp972
Rp973
(dp974
g24
S'COF'
p975
sg26
I212711923
sg27
S'100'
p976
sg28
S'COF'
p977
sg30
S'OPT'
p978
sg32
I00
sg33
Nsg35
g78
sg36
S'20180119'
p979
sg37
S'USD'
p980
sg39
S'COF   180119P00110000'
p981
sg41
S'SMART'
p982
sg43
F110.0
sbsg57
g979
sg58
I0
sg59
g10
sg60
I0
sg61
I0
sg62
F-1.0
sg63
I0
sg64
I01
sg65
F-1.0
sg13
I124
sg66
F110.0
sbag969
ag0
(g46
g2
Ntp983
Rp984
(dp985
g12
I0
sg50
I0
sg14
I00
sg15
g51
sg52
I0
sg53
S'COF'
p986
sg55
g56
sg19
g0
(g20
g2
Ntp987
Rp988
(dp989
g24
S'COF'
p990
sg26
I212711926
sg27
S'100'
p991
sg28
S'COF'
p992
sg30
S'OPT'
p993
sg32
I00
sg33
Nsg35
g78
sg36
S'20180119'
p994
sg37
S'USD'
p995
sg39
S'COF   180119P00115000'
p996
sg41
S'SMART'
p997
sg43
F115.0
sbsg57
g994
sg58
I0
sg59
g10
sg60
I0
sg61
F45.19
sg62
F-1.0
sg63
I0
sg64
I01
sg65
F-1.0
sg13
I126
sg66
F115.0
sbag984
ag0
(g46
g2
Ntp998
Rp999
(dp1000
g12
I0
sg50
I0
sg14
I00
sg15
g51
sg52
I0
sg53
S'COF'
p1001
sg55
g56
sg19
g0
(g20
g2
Ntp1002
Rp1003
(dp1004
g24
S'COF'
p1005
sg26
I212711929
sg27
S'100'
p1006
sg28
S'COF'
p1007
sg30
S'OPT'
p1008
sg32
I00
sg33
Nsg35
g78
sg36
S'20180119'
p1009
sg37
S'USD'
p1010
sg39
S'COF   180119P00040000'
p1011
sg41
S'SMART'
p1012
sg43
F40.0
sbsg57
g1009
sg58
I0
sg59
g10
sg60
I0
sg61
F1.55
sg62
F-1.0
sg63
I0
sg64
I01
sg65
F-1.0
sg13
I128
sg66
F40.0
sbag999
ag0
(g46
g2
Ntp1013
Rp1014
(dp1015
g12
I0
sg50
I0
sg14
I00
sg15
g51
sg52
I0
sg53
S'COF'
p1016
sg55
g56
sg19
g0
(g20
g2
Ntp1017
Rp1018
(dp1019
g24
S'COF'
p1020
sg26
I212711936
sg27
S'100'
p1021
sg28
S'COF'
p1022
sg30
S'OPT'
p1023
sg32
I00
sg33
Nsg35
g78
sg36
S'20180119'
p1024
sg37
S'USD'
p1025
sg39
S'COF   180119P00045000'
p1026
sg41
S'SMART'
p1027
sg43
F45.0
sbsg57
g1024
sg58
I0
sg59
g10
sg60
I0
sg61
I0
sg62
F-1.0
sg63
I0
sg64
I01
sg65
F-1.0
sg13
I130
sg66
F45.0
sbag1014
ag0
(g46
g2
Ntp1028
Rp1029
(dp1030
g12
I0
sg50
I0
sg14
I00
sg15
g51
sg52
I0
sg53
S'COF'
p1031
sg55
g56
sg19
g0
(g20
g2
Ntp1032
Rp1033
(dp1034
g24
S'COF'
p1035
sg26
I212711941
sg27
S'100'
p1036
sg28
S'COF'
p1037
sg30
S'OPT'
p1038
sg32
I00
sg33
Nsg35
g78
sg36
S'20180119'
p1039
sg37
S'USD'
p1040
sg39
S'COF   180119P00050000'
p1041
sg41
S'SMART'
p1042
sg43
F50.0
sbsg57
g1039
sg58
I0
sg59
g10
sg60
I0
sg61
F3.09
sg62
F-1.0
sg63
I0
sg64
I01
sg65
F-1.0
sg13
I132
sg66
F50.0
sbag1029
ag0
(g46
g2
Ntp1043
Rp1044
(dp1045
g12
I0
sg50
I0
sg14
I00
sg15
g51
sg52
I0
sg53
S'COF'
p1046
sg55
g56
sg19
g0
(g20
g2
Ntp1047
Rp1048
(dp1049
g24
S'COF'
p1050
sg26
I213912677
sg27
S'100'
p1051
sg28
S'COF'
p1052
sg30
S'OPT'
p1053
sg32
I00
sg33
Nsg35
g78
sg36
S'20180119'
p1054
sg37
S'USD'
p1055
sg39
S'COF   180119P00087500'
p1056
sg41
S'SMART'
p1057
sg43
F87.5
sbsg57
g1054
sg58
I0
sg59
g10
sg60
I0
sg61
I0
sg62
F-1.0
sg63
I0
sg64
I01
sg65
F-1.0
sg13
I134
sg66
F87.5
sbag1044
ag0
(g46
g2
Ntp1058
Rp1059
(dp1060
g12
I0
sg50
I0
sg14
I00
sg15
g51
sg52
I0
sg53
S'COF'
p1061
sg55
g56
sg19
g0
(g20
g2
Ntp1062
Rp1063
(dp1064
g24
S'COF'
p1065
sg26
I216759888
sg27
S'100'
p1066
sg28
S'COF'
p1067
sg30
S'OPT'
p1068
sg32
I00
sg33
Nsg35
g78
sg36
S'20180119'
p1069
sg37
S'USD'
p1070
sg39
S'COF   180119P00067500'
p1071
sg41
S'SMART'
p1072
sg43
F67.5
sbsg57
g1069
sg58
I0
sg59
g10
sg60
I0
sg61
F8.63
sg62
F-1.0
sg63
I0
sg64
I01
sg65
F-1.0
sg13
I136
sg66
F67.5
sbag1059
ag0
(g46
g2
Ntp1073
Rp1074
(dp1075
g12
I0
sg50
I0
sg14
I00
sg15
g51
sg52
I0
sg53
S'COF'
p1076
sg55
g56
sg19
g0
(g20
g2
Ntp1077
Rp1078
(dp1079
g24
S'COF'
p1080
sg26
I218003493
sg27
S'100'
p1081
sg28
S'COF'
p1082
sg30
S'OPT'
p1083
sg32
I00
sg33
Nsg35
g78
sg36
S'20160617'
p1084
sg37
S'USD'
p1085
sg39
S'COF   160617P00062500'
p1086
sg41
S'SMART'
p1087
sg43
F62.5
sbsg57
g1084
sg58
I0
sg59
g10
sg60
I0
sg61
I0
sg62
I0
sg63
I0
sg64
I01
sg65
I0
sg13
I138
sg66
F62.5
sbag1074
ag0
(g46
g2
Ntp1088
Rp1089
(dp1090
g12
I0
sg50
I0
sg14
I00
sg15
g51
sg52
I0
sg53
S'COF'
p1091
sg55
g56
sg19
g0
(g20
g2
Ntp1092
Rp1093
(dp1094
g24
S'COF'
p1095
sg26
I218003503
sg27
S'100'
p1096
sg28
S'COF'
p1097
sg30
S'OPT'
p1098
sg32
I00
sg33
Nsg35
g78
sg36
S'20180119'
p1099
sg37
S'USD'
p1100
sg39
S'COF   180119P00062500'
p1101
sg41
S'SMART'
p1102
sg43
F62.5
sbsg57
g1099
sg58
I0
sg59
g10
sg60
I0
sg61
F6.53
sg62
F-1.0
sg63
I0
sg64
I01
sg65
F-1.0
sg13
I140
sg66
F62.5
sbag1089
ag0
(g46
g2
Ntp1103
Rp1104
(dp1105
g12
I0
sg50
I0
sg14
I00
sg15
g51
sg52
I0
sg53
S'COF'
p1106
sg55
g56
sg19
g0
(g20
g2
Ntp1107
Rp1108
(dp1109
g24
S'COF'
p1110
sg26
I218189827
sg27
S'100'
p1111
sg28
S'COF'
p1112
sg30
S'OPT'
p1113
sg32
I00
sg33
Nsg35
g78
sg36
S'20170120'
p1114
sg37
S'USD'
p1115
sg39
S'COF   170120P00035000'
p1116
sg41
S'SMART'
p1117
sg43
F35.0
sbsg57
g1114
sg58
I0
sg59
g10
sg60
I0
sg61
F0.39
sg62
F-1.0
sg63
I0
sg64
I01
sg65
F-1.0
sg13
I142
sg66
F35.0
sbag1104
ag0
(g46
g2
Ntp1118
Rp1119
(dp1120
g12
F0.33
sg50
I0
sg14
I00
sg15
g51
sg52
I0
sg53
S'COF'
p1121
sg55
g56
sg19
g0
(g20
g2
Ntp1122
Rp1123
(dp1124
g24
S'COF'
p1125
sg26
I218535598
sg27
S'100'
p1126
sg28
S'COF'
p1127
sg30
S'OPT'
p1128
sg32
I00
sg33
Nsg35
g78
sg36
S'20160617'
p1129
sg37
S'USD'
p1130
sg39
S'COF   160617P00057500'
p1131
sg41
S'SMART'
p1132
sg43
F57.5
sbsg57
g1129
sg58
I0
sg59
g10
sg60
I0
sg61
F0.37
sg62
F-1.0
sg63
I0
sg64
I01
sg65
F-1.0
sg13
I144
sg66
F57.5
sbag1119
ag0
(g46
g2
Ntp1133
Rp1134
(dp1135
g12
I0
sg50
I0
sg14
I00
sg15
g51
sg52
I0
sg53
S'COF'
p1136
sg55
g56
sg19
g0
(g20
g2
Ntp1137
Rp1138
(dp1139
g24
S'COF'
p1140
sg26
I218535605
sg27
S'100'
p1141
sg28
S'COF'
p1142
sg30
S'OPT'
p1143
sg32
I00
sg33
Nsg35
g78
sg36
S'20170120'
p1144
sg37
S'USD'
p1145
sg39
S'COF   170120P00057500'
p1146
sg41
S'SMART'
p1147
sg43
F57.5
sbsg57
g1144
sg58
I0
sg59
g10
sg60
I0
sg61
I0
sg62
F-1.0
sg63
I0
sg64
I01
sg65
F-1.0
sg13
I146
sg66
F57.5
sbag1134
ag0
(g46
g2
Ntp1148
Rp1149
(dp1150
g12
I0
sg50
I0
sg14
I00
sg15
g51
sg52
I0
sg53
S'COF'
p1151
sg55
g56
sg19
g0
(g20
g2
Ntp1152
Rp1153
(dp1154
g24
S'COF'
p1155
sg26
I218535618
sg27
S'100'
p1156
sg28
S'COF'
p1157
sg30
S'OPT'
p1158
sg32
I00
sg33
Nsg35
g78
sg36
S'20180119'
p1159
sg37
S'USD'
p1160
sg39
S'COF   180119P00035000'
p1161
sg41
S'SMART'
p1162
sg43
F35.0
sbsg57
g1159
sg58
I0
sg59
g10
sg60
I0
sg61
I0
sg62
I0
sg63
I0
sg64
I01
sg65
I0
sg13
I148
sg66
F35.0
sbag1149
ag0
(g46
g2
Ntp1163
Rp1164
(dp1165
g12
I0
sg50
I0
sg14
I00
sg15
g51
sg52
I0
sg53
S'COF'
p1166
sg55
g56
sg19
g0
(g20
g2
Ntp1167
Rp1168
(dp1169
g24
S'COF'
p1170
sg26
I218535623
sg27
S'100'
p1171
sg28
S'COF'
p1172
sg30
S'OPT'
p1173
sg32
I00
sg33
Nsg35
g78
sg36
S'20180119'
p1174
sg37
S'USD'
p1175
sg39
S'COF   180119P00057500'
p1176
sg41
S'SMART'
p1177
sg43
F57.5
sbsg57
g1174
sg58
I0
sg59
g10
sg60
I0
sg61
I0
sg62
I0
sg63
I0
sg64
I01
sg65
I0
sg13
I150
sg66
F57.5
sbag1164
ag0
(g46
g2
Ntp1178
Rp1179
(dp1180
g12
I0
sg50
I0
sg14
I00
sg15
g51
sg52
I0
sg53
S'COF'
p1181
sg55
g56
sg19
g0
(g20
g2
Ntp1182
Rp1183
(dp1184
g24
S'COF'
p1185
sg26
I218996861
sg27
S'100'
p1186
sg28
S'COF'
p1187
sg30
S'OPT'
p1188
sg32
I00
sg33
Nsg35
g78
sg36
S'20160617'
p1189
sg37
S'USD'
p1190
sg39
S'COF   160617P00042500'
p1191
sg41
S'SMART'
p1192
sg43
F42.5
sbsg57
g1189
sg58
I0
sg59
g10
sg60
I0
sg61
F0.08
sg62
F-1.0
sg63
I0
sg64
I01
sg65
F-1.0
sg13
I152
sg66
F42.5
sbag1179
ag0
(g46
g2
Ntp1193
Rp1194
(dp1195
g12
I0
sg50
I0
sg14
I00
sg15
g51
sg52
I0
sg53
S'COF'
p1196
sg55
g56
sg19
g0
(g20
g2
Ntp1197
Rp1198
(dp1199
g24
S'COF'
p1200
sg26
I218996866
sg27
S'100'
p1201
sg28
S'COF'
p1202
sg30
S'OPT'
p1203
sg32
I00
sg33
Nsg35
g78
sg36
S'20160617'
p1204
sg37
S'USD'
p1205
sg39
S'COF   160617P00047500'
p1206
sg41
S'SMART'
p1207
sg43
F47.5
sbsg57
g1204
sg58
I0
sg59
g10
sg60
I0
sg61
I0
sg62
I0
sg63
I0
sg64
I01
sg65
I0
sg13
I154
sg66
F47.5
sbag1194
ag0
(g46
g2
Ntp1208
Rp1209
(dp1210
g12
I0
sg50
I0
sg14
I00
sg15
g51
sg52
I0
sg53
S'COF'
p1211
sg55
g56
sg19
g0
(g20
g2
Ntp1212
Rp1213
(dp1214
g24
S'COF'
p1215
sg26
I218996889
sg27
S'100'
p1216
sg28
S'COF'
p1217
sg30
S'OPT'
p1218
sg32
I00
sg33
Nsg35
g78
sg36
S'20170120'
p1219
sg37
S'USD'
p1220
sg39
S'COF   170120P00032500'
p1221
sg41
S'SMART'
p1222
sg43
F32.5
sbsg57
g1219
sg58
I0
sg59
g10
sg60
I0
sg61
F0.34
sg62
F-1.0
sg63
I0
sg64
I01
sg65
F-1.0
sg13
I156
sg66
F32.5
sbag1209
ag0
(g46
g2
Ntp1223
Rp1224
(dp1225
g12
I0
sg50
I0
sg14
I00
sg15
g51
sg52
I0
sg53
S'COF'
p1226
sg55
g56
sg19
g0
(g20
g2
Ntp1227
Rp1228
(dp1229
g24
S'COF'
p1230
sg26
I218996896
sg27
S'100'
p1231
sg28
S'COF'
p1232
sg30
S'OPT'
p1233
sg32
I00
sg33
Nsg35
g78
sg36
S'20170120'
p1234
sg37
S'USD'
p1235
sg39
S'COF   170120P00037500'
p1236
sg41
S'SMART'
p1237
sg43
F37.5
sbsg57
g1234
sg58
I0
sg59
g10
sg60
I0
sg61
F0.45
sg62
F-1.0
sg63
I0
sg64
I01
sg65
F-1.0
sg13
I158
sg66
F37.5
sbag1224
ag0
(g46
g2
Ntp1238
Rp1239
(dp1240
g12
I0
sg50
I0
sg14
I00
sg15
g51
sg52
I0
sg53
S'COF'
p1241
sg55
g56
sg19
g0
(g20
g2
Ntp1242
Rp1243
(dp1244
g24
S'COF'
p1245
sg26
I218996901
sg27
S'100'
p1246
sg28
S'COF'
p1247
sg30
S'OPT'
p1248
sg32
I00
sg33
Nsg35
g78
sg36
S'20170120'
p1249
sg37
S'USD'
p1250
sg39
S'COF   170120P00042500'
p1251
sg41
S'SMART'
p1252
sg43
F42.5
sbsg57
g1249
sg58
I0
sg59
g10
sg60
I0
sg61
F0.63
sg62
F-1.0
sg63
I0
sg64
I01
sg65
F-1.0
sg13
I160
sg66
F42.5
sbag1239
ag0
(g46
g2
Ntp1253
Rp1254
(dp1255
g12
F0.9
sg50
I0
sg14
I00
sg15
g51
sg52
I0
sg53
S'COF'
p1256
sg55
g56
sg19
g0
(g20
g2
Ntp1257
Rp1258
(dp1259
g24
S'COF'
p1260
sg26
I218996906
sg27
S'100'
p1261
sg28
S'COF'
p1262
sg30
S'OPT'
p1263
sg32
I00
sg33
Nsg35
g78
sg36
S'20170120'
p1264
sg37
S'USD'
p1265
sg39
S'COF   170120P00047500'
p1266
sg41
S'SMART'
p1267
sg43
F47.5
sbsg57
g1264
sg58
I0
sg59
g10
sg60
I0
sg61
F0.93
sg62
F-1.0
sg63
I0
sg64
I01
sg65
F-1.0
sg13
I162
sg66
F47.5
sbag1254
ag0
(g46
g2
Ntp1268
Rp1269
(dp1270
g12
I0
sg50
I0
sg14
I00
sg15
g51
sg52
I0
sg53
S'COF'
p1271
sg55
g56
sg19
g0
(g20
g2
Ntp1272
Rp1273
(dp1274
g24
S'COF'
p1275
sg26
I218996931
sg27
S'100'
p1276
sg28
S'COF'
p1277
sg30
S'OPT'
p1278
sg32
I00
sg33
Nsg35
g78
sg36
S'20180119'
p1279
sg37
S'USD'
p1280
sg39
S'COF   180119P00032500'
p1281
sg41
S'SMART'
p1282
sg43
F32.5
sbsg57
g1279
sg58
I0
sg59
g10
sg60
I0
sg61
F0.98
sg62
F-1.0
sg63
I0
sg64
I01
sg65
F-1.0
sg13
I164
sg66
F32.5
sbag1269
ag0
(g46
g2
Ntp1283
Rp1284
(dp1285
g12
I0
sg50
I0
sg14
I00
sg15
g51
sg52
I0
sg53
S'COF'
p1286
sg55
g56
sg19
g0
(g20
g2
Ntp1287
Rp1288
(dp1289
g24
S'COF'
p1290
sg26
I218996937
sg27
S'100'
p1291
sg28
S'COF'
p1292
sg30
S'OPT'
p1293
sg32
I00
sg33
Nsg35
g78
sg36
S'20180119'
p1294
sg37
S'USD'
p1295
sg39
S'COF   180119P00037500'
p1296
sg41
S'SMART'
p1297
sg43
F37.5
sbsg57
g1294
sg58
I0
sg59
g10
sg60
I0
sg61
I0
sg62
I0
sg63
I0
sg64
I01
sg65
I0
sg13
I166
sg66
F37.5
sbag1284
ag0
(g46
g2
Ntp1298
Rp1299
(dp1300
g12
I0
sg50
I0
sg14
I00
sg15
g51
sg52
I0
sg53
S'COF'
p1301
sg55
g56
sg19
g0
(g20
g2
Ntp1302
Rp1303
(dp1304
g24
S'COF'
p1305
sg26
I218996940
sg27
S'100'
p1306
sg28
S'COF'
p1307
sg30
S'OPT'
p1308
sg32
I00
sg33
Nsg35
g78
sg36
S'20180119'
p1309
sg37
S'USD'
p1310
sg39
S'COF   180119P00042500'
p1311
sg41
S'SMART'
p1312
sg43
F42.5
sbsg57
g1309
sg58
I0
sg59
g10
sg60
I0
sg61
F1.77
sg62
F-1.0
sg63
I0
sg64
I01
sg65
F-1.0
sg13
I168
sg66
F42.5
sbag1299
ag0
(g46
g2
Ntp1313
Rp1314
(dp1315
g12
I0
sg50
I0
sg14
I00
sg15
g51
sg52
I0
sg53
S'COF'
p1316
sg55
g56
sg19
g0
(g20
g2
Ntp1317
Rp1318
(dp1319
g24
S'COF'
p1320
sg26
I218996946
sg27
S'100'
p1321
sg28
S'COF'
p1322
sg30
S'OPT'
p1323
sg32
I00
sg33
Nsg35
g78
sg36
S'20180119'
p1324
sg37
S'USD'
p1325
sg39
S'COF   180119P00047500'
p1326
sg41
S'SMART'
p1327
sg43
F47.5
sbsg57
g1324
sg58
I0
sg59
g10
sg60
I0
sg61
F2.51
sg62
F-1.0
sg63
I0
sg64
I01
sg65
F-1.0
sg13
I170
sg66
F47.5
sbag1314
ag0
(g46
g2
Ntp1328
Rp1329
(dp1330
g12
F0.13
sg50
I0
sg14
I00
sg15
g51
sg52
I0
sg53
S'COF'
p1331
sg55
g56
sg19
g0
(g20
g2
Ntp1332
Rp1333
(dp1334
g24
S'COF'
p1335
sg26
I219242510
sg27
S'100'
p1336
sg28
S'COF'
p1337
sg30
S'OPT'
p1338
sg32
I00
sg33
Nsg35
g78
sg36
S'20160916'
p1339
sg37
S'USD'
p1340
sg39
S'COF   160916P00032500'
p1341
sg41
S'SMART'
p1342
sg43
F32.5
sbsg57
g1339
sg58
I0
sg59
g10
sg60
I0
sg61
F0.16
sg62
F-1.0
sg63
I0
sg64
I01
sg65
F-1.0
sg13
I172
sg66
F32.5
sbag1329
ag0
(g46
g2
Ntp1343
Rp1344
(dp1345
g12
I0
sg50
I0
sg14
I00
sg15
g51
sg52
I0
sg53
S'COF'
p1346
sg55
g56
sg19
g0
(g20
g2
Ntp1347
Rp1348
(dp1349
g24
S'COF'
p1350
sg26
I219242512
sg27
S'100'
p1351
sg28
S'COF'
p1352
sg30
S'OPT'
p1353
sg32
I00
sg33
Nsg35
g78
sg36
S'20160916'
p1354
sg37
S'USD'
p1355
sg39
S'COF   160916P00035000'
p1356
sg41
S'SMART'
p1357
sg43
F35.0
sbsg57
g1354
sg58
I0
sg59
g10
sg60
I0
sg61
I0
sg62
I0
sg63
I0
sg64
I01
sg65
I0
sg13
I174
sg66
F35.0
sbag1344
ag0
(g46
g2
Ntp1358
Rp1359
(dp1360
g12
I0
sg50
I0
sg14
I00
sg15
g51
sg52
I0
sg53
S'COF'
p1361
sg55
g56
sg19
g0
(g20
g2
Ntp1362
Rp1363
(dp1364
g24
S'COF'
p1365
sg26
I219242517
sg27
S'100'
p1366
sg28
S'COF'
p1367
sg30
S'OPT'
p1368
sg32
I00
sg33
Nsg35
g78
sg36
S'20160916'
p1369
sg37
S'USD'
p1370
sg39
S'COF   160916P00037500'
p1371
sg41
S'SMART'
p1372
sg43
F37.5
sbsg57
g1369
sg58
I0
sg59
g10
sg60
I0
sg61
F0.24
sg62
F-1.0
sg63
I0
sg64
I01
sg65
F-1.0
sg13
I176
sg66
F37.5
sbag1359
ag0
(g46
g2
Ntp1373
Rp1374
(dp1375
g12
I0
sg50
I0
sg14
I00
sg15
g51
sg52
I0
sg53
S'COF'
p1376
sg55
g56
sg19
g0
(g20
g2
Ntp1377
Rp1378
(dp1379
g24
S'COF'
p1380
sg26
I219242522
sg27
S'100'
p1381
sg28
S'COF'
p1382
sg30
S'OPT'
p1383
sg32
I00
sg33
Nsg35
g78
sg36
S'20160916'
p1384
sg37
S'USD'
p1385
sg39
S'COF   160916P00040000'
p1386
sg41
S'SMART'
p1387
sg43
F40.0
sbsg57
g1384
sg58
I0
sg59
g10
sg60
I0
sg61
I0
sg62
I0
sg63
I0
sg64
I01
sg65
I0
sg13
I178
sg66
F40.0
sbag1374
ag0
(g46
g2
Ntp1388
Rp1389
(dp1390
g12
I0
sg50
I0
sg14
I00
sg15
g51
sg52
I0
sg53
S'COF'
p1391
sg55
g56
sg19
g0
(g20
g2
Ntp1392
Rp1393
(dp1394
g24
S'COF'
p1395
sg26
I219242527
sg27
S'100'
p1396
sg28
S'COF'
p1397
sg30
S'OPT'
p1398
sg32
I00
sg33
Nsg35
g78
sg36
S'20160916'
p1399
sg37
S'USD'
p1400
sg39
S'COF   160916P00042500'
p1401
sg41
S'SMART'
p1402
sg43
F42.5
sbsg57
g1399
sg58
I0
sg59
g10
sg60
I0
sg61
I0
sg62
F-1.0
sg63
I0
sg64
I01
sg65
F-1.0
sg13
I180
sg66
F42.5
sbag1389
ag0
(g46
g2
Ntp1403
Rp1404
(dp1405
g12
I0
sg50
I0
sg14
I00
sg15
g51
sg52
I0
sg53
S'COF'
p1406
sg55
g56
sg19
g0
(g20
g2
Ntp1407
Rp1408
(dp1409
g24
S'COF'
p1410
sg26
I219242531
sg27
S'100'
p1411
sg28
S'COF'
p1412
sg30
S'OPT'
p1413
sg32
I00
sg33
Nsg35
g78
sg36
S'20160916'
p1414
sg37
S'USD'
p1415
sg39
S'COF   160916P00045000'
p1416
sg41
S'SMART'
p1417
sg43
F45.0
sbsg57
g1414
sg58
I0
sg59
g10
sg60
I0
sg61
I0
sg62
I0
sg63
I0
sg64
I01
sg65
I0
sg13
I182
sg66
F45.0
sbag1404
ag0
(g46
g2
Ntp1418
Rp1419
(dp1420
g12
I0
sg50
I0
sg14
I00
sg15
g51
sg52
I0
sg53
S'COF'
p1421
sg55
g56
sg19
g0
(g20
g2
Ntp1422
Rp1423
(dp1424
g24
S'COF'
p1425
sg26
I219242534
sg27
S'100'
p1426
sg28
S'COF'
p1427
sg30
S'OPT'
p1428
sg32
I00
sg33
Nsg35
g78
sg36
S'20160916'
p1429
sg37
S'USD'
p1430
sg39
S'COF   160916P00047500'
p1431
sg41
S'SMART'
p1432
sg43
F47.5
sbsg57
g1429
sg58
I0
sg59
g10
sg60
I0
sg61
F0.43
sg62
F-1.0
sg63
I0
sg64
I01
sg65
F-1.0
sg13
I184
sg66
F47.5
sbag1419
ag0
(g46
g2
Ntp1433
Rp1434
(dp1435
g12
I0
sg50
I0
sg14
I00
sg15
g51
sg52
I0
sg53
S'COF'
p1436
sg55
g56
sg19
g0
(g20
g2
Ntp1437
Rp1438
(dp1439
g24
S'COF'
p1440
sg26
I219242537
sg27
S'100'
p1441
sg28
S'COF'
p1442
sg30
S'OPT'
p1443
sg32
I00
sg33
Nsg35
g78
sg36
S'20160916'
p1444
sg37
S'USD'
p1445
sg39
S'COF   160916P00050000'
p1446
sg41
S'SMART'
p1447
sg43
F50.0
sbsg57
g1444
sg58
I0
sg59
g10
sg60
I0
sg61
I0
sg62
I0
sg63
I0
sg64
I01
sg65
I0
sg13
I186
sg66
F50.0
sbag1434
ag0
(g46
g2
Ntp1448
Rp1449
(dp1450
g12
I0
sg50
I0
sg14
I00
sg15
g51
sg52
I0
sg53
S'COF'
p1451
sg55
g56
sg19
g0
(g20
g2
Ntp1452
Rp1453
(dp1454
g24
S'COF'
p1455
sg26
I219242546
sg27
S'100'
p1456
sg28
S'COF'
p1457
sg30
S'OPT'
p1458
sg32
I00
sg33
Nsg35
g78
sg36
S'20160916'
p1459
sg37
S'USD'
p1460
sg39
S'COF   160916P00055000'
p1461
sg41
S'SMART'
p1462
sg43
F55.0
sbsg57
g1459
sg58
I0
sg59
g10
sg60
I0
sg61
I0
sg62
F-1.0
sg63
I0
sg64
I01
sg65
F-1.0
sg13
I188
sg66
F55.0
sbag1449
ag0
(g46
g2
Ntp1463
Rp1464
(dp1465
g12
F1.0
sg50
I0
sg14
I00
sg15
g51
sg52
I0
sg53
S'COF'
p1466
sg55
g56
sg19
g0
(g20
g2
Ntp1467
Rp1468
(dp1469
g24
S'COF'
p1470
sg26
I219242551
sg27
S'100'
p1471
sg28
S'COF'
p1472
sg30
S'OPT'
p1473
sg32
I00
sg33
Nsg35
g78
sg36
S'20160916'
p1474
sg37
S'USD'
p1475
sg39
S'COF   160916P00057500'
p1476
sg41
S'SMART'
p1477
sg43
F57.5
sbsg57
g1474
sg58
I0
sg59
g10
sg60
I0
sg61
F1.07
sg62
F-1.0
sg63
I0
sg64
I01
sg65
F-1.0
sg13
I190
sg66
F57.5
sbag1464
ag0
(g46
g2
Ntp1478
Rp1479
(dp1480
g12
F1.45
sg50
I0
sg14
I00
sg15
g51
sg52
I0
sg53
S'COF'
p1481
sg55
g56
sg19
g0
(g20
g2
Ntp1482
Rp1483
(dp1484
g24
S'COF'
p1485
sg26
I219242552
sg27
S'100'
p1486
sg28
S'COF'
p1487
sg30
S'OPT'
p1488
sg32
I00
sg33
Nsg35
g78
sg36
S'20160916'
p1489
sg37
S'USD'
p1490
sg39
S'COF   160916P00060000'
p1491
sg41
S'SMART'
p1492
sg43
F60.0
sbsg57
g1489
sg58
I0
sg59
g10
sg60
I0
sg61
F1.4
sg62
F-1.0
sg63
I0
sg64
I01
sg65
F-1.0
sg13
I192
sg66
F60.0
sbag1479
ag0
(g46
g2
Ntp1493
Rp1494
(dp1495
g12
I0
sg50
I0
sg14
I00
sg15
g51
sg52
I0
sg53
S'COF'
p1496
sg55
g56
sg19
g0
(g20
g2
Ntp1497
Rp1498
(dp1499
g24
S'COF'
p1500
sg26
I219242557
sg27
S'100'
p1501
sg28
S'COF'
p1502
sg30
S'OPT'
p1503
sg32
I00
sg33
Nsg35
g78
sg36
S'20160916'
p1504
sg37
S'USD'
p1505
sg39
S'COF   160916P00062500'
p1506
sg41
S'SMART'
p1507
sg43
F62.5
sbsg57
g1504
sg58
I0
sg59
g10
sg60
I0
sg61
I0
sg62
I0
sg63
I0
sg64
I01
sg65
I0
sg13
I194
sg66
F62.5
sbag1494
ag0
(g46
g2
Ntp1508
Rp1509
(dp1510
g12
F2.3
sg50
I0
sg14
I00
sg15
g51
sg52
I0
sg53
S'COF'
p1511
sg55
g56
sg19
g0
(g20
g2
Ntp1512
Rp1513
(dp1514
g24
S'COF'
p1515
sg26
I219242560
sg27
S'100'
p1516
sg28
S'COF'
p1517
sg30
S'OPT'
p1518
sg32
I00
sg33
Nsg35
g78
sg36
S'20160916'
p1519
sg37
S'USD'
p1520
sg39
S'COF   160916P00065000'
p1521
sg41
S'SMART'
p1522
sg43
F65.0
sbsg57
g1519
sg58
I0
sg59
g10
sg60
I0
sg61
F2.43
sg62
F-1.0
sg63
I0
sg64
I01
sg65
F-1.0
sg13
I196
sg66
F65.0
sbag1509
ag0
(g46
g2
Ntp1523
Rp1524
(dp1525
g12
I0
sg50
I0
sg14
I00
sg15
g51
sg52
I0
sg53
S'COF'
p1526
sg55
g56
sg19
g0
(g20
g2
Ntp1527
Rp1528
(dp1529
g24
S'COF'
p1530
sg26
I219242565
sg27
S'100'
p1531
sg28
S'COF'
p1532
sg30
S'OPT'
p1533
sg32
I00
sg33
Nsg35
g78
sg36
S'20160916'
p1534
sg37
S'USD'
p1535
sg39
S'COF   160916P00067500'
p1536
sg41
S'SMART'
p1537
sg43
F67.5
sbsg57
g1534
sg58
I0
sg59
g10
sg60
I0
sg61
I0
sg62
I0
sg63
I0
sg64
I01
sg65
I0
sg13
I198
sg66
F67.5
sbag1524
ag0
(g46
g2
Ntp1538
Rp1539
(dp1540
g12
I0
sg50
I0
sg14
I00
sg15
g51
sg52
I0
sg53
S'COF'
p1541
sg55
g56
sg19
g0
(g20
g2
Ntp1542
Rp1543
(dp1544
g24
S'COF'
p1545
sg26
I219242570
sg27
S'100'
p1546
sg28
S'COF'
p1547
sg30
S'OPT'
p1548
sg32
I00
sg33
Nsg35
g78
sg36
S'20160916'
p1549
sg37
S'USD'
p1550
sg39
S'COF   160916P00070000'
p1551
sg41
S'SMART'
p1552
sg43
F70.0
sbsg57
g1549
sg58
I0
sg59
g10
sg60
I0
sg61
I0
sg62
F-1.0
sg63
I0
sg64
I01
sg65
F-1.0
sg13
I200
sg66
F70.0
sbag1539
ag0
(g46
g2
Ntp1553
Rp1554
(dp1555
g12
I0
sg50
I0
sg14
I00
sg15
g51
sg52
I0
sg53
S'COF'
p1556
sg55
g56
sg19
g0
(g20
g2
Ntp1557
Rp1558
(dp1559
g24
S'COF'
p1560
sg26
I219242575
sg27
S'100'
p1561
sg28
S'COF'
p1562
sg30
S'OPT'
p1563
sg32
I00
sg33
Nsg35
g78
sg36
S'20160916'
p1564
sg37
S'USD'
p1565
sg39
S'COF   160916P00072500'
p1566
sg41
S'SMART'
p1567
sg43
F72.5
sbsg57
g1564
sg58
I0
sg59
g10
sg60
I0
sg61
I0
sg62
F-1.0
sg63
I0
sg64
I01
sg65
F-1.0
sg13
I202
sg66
F72.5
sbag1554
ag0
(g46
g2
Ntp1568
Rp1569
(dp1570
g12
I0
sg50
I0
sg14
I00
sg15
g51
sg52
I0
sg53
S'COF'
p1571
sg55
g56
sg19
g0
(g20
g2
Ntp1572
Rp1573
(dp1574
g24
S'COF'
p1575
sg26
I219242577
sg27
S'100'
p1576
sg28
S'COF'
p1577
sg30
S'OPT'
p1578
sg32
I00
sg33
Nsg35
g78
sg36
S'20160916'
p1579
sg37
S'USD'
p1580
sg39
S'COF   160916P00075000'
p1581
sg41
S'SMART'
p1582
sg43
F75.0
sbsg57
g1579
sg58
I0
sg59
g10
sg60
I0
sg61
I0
sg62
F-1.0
sg63
I0
sg64
I01
sg65
F-1.0
sg13
I204
sg66
F75.0
sbag1569
ag0
(g46
g2
Ntp1583
Rp1584
(dp1585
g12
I0
sg50
I0
sg14
I00
sg15
g51
sg52
I0
sg53
S'COF'
p1586
sg55
g56
sg19
g0
(g20
g2
Ntp1587
Rp1588
(dp1589
g24
S'COF'
p1590
sg26
I219242580
sg27
S'100'
p1591
sg28
S'COF'
p1592
sg30
S'OPT'
p1593
sg32
I00
sg33
Nsg35
g78
sg36
S'20160916'
p1594
sg37
S'USD'
p1595
sg39
S'COF   160916P00080000'
p1596
sg41
S'SMART'
p1597
sg43
F80.0
sbsg57
g1594
sg58
I0
sg59
g10
sg60
I0
sg61
F10.46
sg62
F-1.0
sg63
I0
sg64
I01
sg65
F-1.0
sg13
I206
sg66
F80.0
sbag1584
ag0
(g46
g2
Ntp1598
Rp1599
(dp1600
g12
I0
sg50
I0
sg14
I00
sg15
g51
sg52
I0
sg53
S'COF'
p1601
sg55
g56
sg19
g0
(g20
g2
Ntp1602
Rp1603
(dp1604
g24
S'COF'
p1605
sg26
I219242587
sg27
S'100'
p1606
sg28
S'COF'
p1607
sg30
S'OPT'
p1608
sg32
I00
sg33
Nsg35
g78
sg36
S'20160916'
p1609
sg37
S'USD'
p1610
sg39
S'COF   160916P00085000'
p1611
sg41
S'SMART'
p1612
sg43
F85.0
sbsg57
g1609
sg58
I0
sg59
g10
sg60
I0
sg61
F14.83
sg62
F-1.0
sg63
I0
sg64
I01
sg65
F-1.0
sg13
I208
sg66
F85.0
sbag1599
ag0
(g46
g2
Ntp1613
Rp1614
(dp1615
g12
I0
sg50
I0
sg14
I00
sg15
g51
sg52
I0
sg53
S'COF'
p1616
sg55
g56
sg19
g0
(g20
g2
Ntp1617
Rp1618
(dp1619
g24
S'COF'
p1620
sg26
I219242590
sg27
S'100'
p1621
sg28
S'COF'
p1622
sg30
S'OPT'
p1623
sg32
I00
sg33
Nsg35
g78
sg36
S'20160916'
p1624
sg37
S'USD'
p1625
sg39
S'COF   160916P00090000'
p1626
sg41
S'SMART'
p1627
sg43
F90.0
sbsg57
g1624
sg58
I0
sg59
g10
sg60
I0
sg61
F19.67
sg62
F-1.0
sg63
I0
sg64
I01
sg65
F-1.0
sg13
I210
sg66
F90.0
sbag1614
ag0
(g46
g2
Ntp1628
Rp1629
(dp1630
g12
I0
sg50
I0
sg14
I00
sg15
g51
sg52
I0
sg53
S'COF'
p1631
sg55
g56
sg19
g0
(g20
g2
Ntp1632
Rp1633
(dp1634
g24
S'COF'
p1635
sg26
I219242594
sg27
S'100'
p1636
sg28
S'COF'
p1637
sg30
S'OPT'
p1638
sg32
I00
sg33
Nsg35
g78
sg36
S'20160916'
p1639
sg37
S'USD'
p1640
sg39
S'COF   160916P00095000'
p1641
sg41
S'SMART'
p1642
sg43
F95.0
sbsg57
g1639
sg58
I0
sg59
g10
sg60
I0
sg61
I0
sg62
I0
sg63
I0
sg64
I01
sg65
I0
sg13
I212
sg66
F95.0
sbag1629
ag0
(g46
g2
Ntp1643
Rp1644
(dp1645
g12
I0
sg50
I0
sg14
I00
sg15
g51
sg52
I0
sg53
S'COF'
p1646
sg55
g56
sg19
g0
(g20
g2
Ntp1647
Rp1648
(dp1649
g24
S'COF'
p1650
sg26
I219956864
sg27
S'100'
p1651
sg28
S'COF'
p1652
sg30
S'OPT'
p1653
sg32
I00
sg33
Nsg35
g78
sg36
S'20160617'
p1654
sg37
S'USD'
p1655
sg39
S'COF   160617P00037500'
p1656
sg41
S'SMART'
p1657
sg43
F37.5
sbsg57
g1654
sg58
I0
sg59
g10
sg60
I0
sg61
F0.02
sg62
F-1.0
sg63
I0
sg64
I01
sg65
F-1.0
sg13
I214
sg66
F37.5
sbag1644
ag0
(g46
g2
Ntp1658
Rp1659
(dp1660
g12
I0
sg50
I0
sg14
I00
sg15
g51
sg52
I0
sg53
S'COF'
p1661
sg55
g56
sg19
g0
(g20
g2
Ntp1662
Rp1663
(dp1664
g24
S'COF'
p1665
sg26
I220129798
sg27
S'100'
p1666
sg28
S'COF'
p1667
sg30
S'OPT'
p1668
sg32
I00
sg33
Nsg35
g78
sg36
S'20160617'
p1669
sg37
S'USD'
p1670
sg39
S'COF   160617P00035000'
p1671
sg41
S'SMART'
p1672
sg43
F35.0
sbsg57
g1669
sg58
I0
sg59
g10
sg60
I0
sg61
I0
sg62
I0
sg63
I0
sg64
I01
sg65
I0
sg13
I216
sg66
F35.0
sbag1659
ag0
(g46
g2
Ntp1673
Rp1674
(dp1675
g12
I0
sg50
I0
sg14
I00
sg15
g51
sg52
I0
sg53
S'COF'
p1676
sg55
g56
sg19
g0
(g20
g2
Ntp1677
Rp1678
(dp1679
g24
S'COF'
p1680
sg26
I220129801
sg27
S'100'
p1681
sg28
S'COF'
p1682
sg30
S'OPT'
p1683
sg32
I00
sg33
Nsg35
g78
sg36
S'20160617'
p1684
sg37
S'USD'
p1685
sg39
S'COF   160617P00052500'
p1686
sg41
S'SMART'
p1687
sg43
F52.5
sbsg57
g1684
sg58
I0
sg59
g10
sg60
I0
sg61
I0
sg62
I0
sg63
I0
sg64
I01
sg65
I0
sg13
I218
sg66
F52.5
sbag1674
ag0
(g46
g2
Ntp1688
Rp1689
(dp1690
g12
I0
sg50
I0
sg14
I00
sg15
g51
sg52
I0
sg53
S'COF'
p1691
sg55
g56
sg19
g0
(g20
g2
Ntp1692
Rp1693
(dp1694
g24
S'COF'
p1695
sg26
I220129810
sg27
S'100'
p1696
sg28
S'COF'
p1697
sg30
S'OPT'
p1698
sg32
I00
sg33
Nsg35
g78
sg36
S'20160916'
p1699
sg37
S'USD'
p1700
sg39
S'COF   160916P00030000'
p1701
sg41
S'SMART'
p1702
sg43
F30.0
sbsg57
g1699
sg58
I0
sg59
g10
sg60
I0
sg61
F0.09
sg62
F-1.0
sg63
I0
sg64
I01
sg65
F-1.0
sg13
I220
sg66
F30.0
sbag1689
ag0
(g46
g2
Ntp1703
Rp1704
(dp1705
g12
I0
sg50
I0
sg14
I00
sg15
g51
sg52
I0
sg53
S'COF'
p1706
sg55
g56
sg19
g0
(g20
g2
Ntp1707
Rp1708
(dp1709
g24
S'COF'
p1710
sg26
I220129821
sg27
S'100'
p1711
sg28
S'COF'
p1712
sg30
S'OPT'
p1713
sg32
I00
sg33
Nsg35
g78
sg36
S'20170120'
p1714
sg37
S'USD'
p1715
sg39
S'COF   170120P00030000'
p1716
sg41
S'SMART'
p1717
sg43
F30.0
sbsg57
g1714
sg58
I0
sg59
g10
sg60
I0
sg61
F0.31
sg62
F-1.0
sg63
I0
sg64
I01
sg65
F-1.0
sg13
I222
sg66
F30.0
sbag1704
ag0
(g46
g2
Ntp1718
Rp1719
(dp1720
g12
I0
sg50
I0
sg14
I00
sg15
g51
sg52
I0
sg53
S'COF'
p1721
sg55
g56
sg19
g0
(g20
g2
Ntp1722
Rp1723
(dp1724
g24
S'COF'
p1725
sg26
I220129825
sg27
S'100'
p1726
sg28
S'COF'
p1727
sg30
S'OPT'
p1728
sg32
I00
sg33
Nsg35
g78
sg36
S'20170120'
p1729
sg37
S'USD'
p1730
sg39
S'COF   170120P00052500'
p1731
sg41
S'SMART'
p1732
sg43
F52.5
sbsg57
g1729
sg58
I0
sg59
g10
sg60
I0
sg61
I0
sg62
I0
sg63
I0
sg64
I01
sg65
I0
sg13
I224
sg66
F52.5
sbag1719
ag0
(g46
g2
Ntp1733
Rp1734
(dp1735
g12
I0
sg50
I0
sg14
I00
sg15
g51
sg52
I0
sg53
S'COF'
p1736
sg55
g56
sg19
g0
(g20
g2
Ntp1737
Rp1738
(dp1739
g24
S'COF'
p1740
sg26
I220129838
sg27
S'100'
p1741
sg28
S'COF'
p1742
sg30
S'OPT'
p1743
sg32
I00
sg33
Nsg35
g78
sg36
S'20180119'
p1744
sg37
S'USD'
p1745
sg39
S'COF   180119P00030000'
p1746
sg41
S'SMART'
p1747
sg43
F30.0
sbsg57
g1744
sg58
I0
sg59
g10
sg60
I0
sg61
I0
sg62
I0
sg63
I0
sg64
I01
sg65
I0
sg13
I226
sg66
F30.0
sbag1734
ag0
(g46
g2
Ntp1748
Rp1749
(dp1750
g12
I0
sg50
I0
sg14
I00
sg15
g51
sg52
I0
sg53
S'COF'
p1751
sg55
g56
sg19
g0
(g20
g2
Ntp1752
Rp1753
(dp1754
g24
S'COF'
p1755
sg26
I220129840
sg27
S'100'
p1756
sg28
S'COF'
p1757
sg30
S'OPT'
p1758
sg32
I00
sg33
Nsg35
g78
sg36
S'20180119'
p1759
sg37
S'USD'
p1760
sg39
S'COF   180119P00052500'
p1761
sg41
S'SMART'
p1762
sg43
F52.5
sbsg57
g1759
sg58
I0
sg59
g10
sg60
I0
sg61
F3.68
sg62
F-1.0
sg63
I0
sg64
I01
sg65
F-1.0
sg13
I228
sg66
F52.5
sbag1749
ag0
(g46
g2
Ntp1763
Rp1764
(dp1765
g12
I0
sg50
I0
sg14
I00
sg15
g51
sg52
I0
sg53
S'COF'
p1766
sg55
g56
sg19
g0
(g20
g2
Ntp1767
Rp1768
(dp1769
g24
S'COF'
p1770
sg26
I221968224
sg27
S'100'
p1771
sg28
S'COF'
p1772
sg30
S'OPT'
p1773
sg32
I00
sg33
Nsg35
g78
sg36
S'20160916'
p1774
sg37
S'USD'
p1775
sg39
S'COF   160916P00052500'
p1776
sg41
S'SMART'
p1777
sg43
F52.5
sbsg57
g1774
sg58
I0
sg59
g10
sg60
I0
sg61
I0
sg62
F-1.0
sg63
I0
sg64
I01
sg65
F-1.0
sg13
I230
sg66
F52.5
sbag1764
ag0
(g46
g2
Ntp1778
Rp1779
(dp1780
g12
I0
sg50
I0
sg14
I00
sg15
g51
sg52
I0
sg53
S'COF'
p1781
sg55
g56
sg19
g0
(g20
g2
Ntp1782
Rp1783
(dp1784
g24
S'COF'
p1785
sg26
I222333203
sg27
S'100'
p1786
sg28
S'COF'
p1787
sg30
S'OPT'
p1788
sg32
I00
sg33
Nsg35
g78
sg36
S'20160617'
p1789
sg37
S'USD'
p1790
sg39
S'COF   160617P00032500'
p1791
sg41
S'SMART'
p1792
sg43
F32.5
sbsg57
g1789
sg58
I0
sg59
g10
sg60
I0
sg61
I0
sg62
I0
sg63
I0
sg64
I01
sg65
I0
sg13
I232
sg66
F32.5
sbag1779
ag0
(g46
g2
Ntp1793
Rp1794
(dp1795
g12
I0
sg50
I0
sg14
I00
sg15
g51
sg52
I0
sg53
S'COF'
p1796
sg55
g56
sg19
g0
(g20
g2
Ntp1797
Rp1798
(dp1799
g24
S'COF'
p1800
sg26
I224453157
sg27
S'100'
p1801
sg28
S'COF'
p1802
sg30
S'OPT'
p1803
sg32
I00
sg33
Nsg35
g78
sg36
S'20160422'
p1804
sg37
S'USD'
p1805
sg39
S'COF   160422P00068500'
p1806
sg41
S'SMART'
p1807
sg43
F68.5
sbsg57
g1804
sg58
I0
sg59
g10
sg60
I0
sg61
I0
sg62
I0
sg63
I0
sg64
I01
sg65
I0
sg13
I234
sg66
F68.5
sbag1794
ag0
(g46
g2
Ntp1808
Rp1809
(dp1810
g12
I0
sg50
I0
sg14
I00
sg15
g51
sg52
I0
sg53
S'COF'
p1811
sg55
g56
sg19
g0
(g20
g2
Ntp1812
Rp1813
(dp1814
g24
S'COF'
p1815
sg26
I224453608
sg27
S'100'
p1816
sg28
S'COF'
p1817
sg30
S'OPT'
p1818
sg32
I00
sg33
Nsg35
g78
sg36
S'20160422'
p1819
sg37
S'USD'
p1820
sg39
S'COF   160422P00067000'
p1821
sg41
S'SMART'
p1822
sg43
F67.0
sbsg57
g1819
sg58
I0
sg59
g10
sg60
I0
sg61
I0
sg62
I0
sg63
I0
sg64
I01
sg65
I0
sg13
I236
sg66
F67.0
sbag1809
ag0
(g46
g2
Ntp1823
Rp1824
(dp1825
g12
I0
sg50
I0
sg14
I00
sg15
g51
sg52
I0
sg53
S'COF'
p1826
sg55
g56
sg19
g0
(g20
g2
Ntp1827
Rp1828
(dp1829
g24
S'COF'
p1830
sg26
I224458040
sg27
S'100'
p1831
sg28
S'COF'
p1832
sg30
S'OPT'
p1833
sg32
I00
sg33
Nsg35
g78
sg36
S'20160422'
p1834
sg37
S'USD'
p1835
sg39
S'COF   160422P00070500'
p1836
sg41
S'SMART'
p1837
sg43
F70.5
sbsg57
g1834
sg58
I0
sg59
g10
sg60
I0
sg61
I0
sg62
I0
sg63
I0
sg64
I01
sg65
I0
sg13
I238
sg66
F70.5
sbag1824
ag0
(g46
g2
Ntp1838
Rp1839
(dp1840
g12
F0.05
sg50
I0
sg14
I00
sg15
g51
sg52
I0
sg53
S'COF'
p1841
sg55
g56
sg19
g0
(g20
g2
Ntp1842
Rp1843
(dp1844
g24
S'COF'
p1845
sg26
I224460044
sg27
S'100'
p1846
sg28
S'COF'
p1847
sg30
S'OPT'
p1848
sg32
I00
sg33
Nsg35
g78
sg36
S'20160422'
p1849
sg37
S'USD'
p1850
sg39
S'COF   160422P00066500'
p1851
sg41
S'SMART'
p1852
sg43
F66.5
sbsg57
g1849
sg58
I0
sg59
g10
sg60
I0
sg61
F0.06
sg62
F-1.0
sg63
I0
sg64
I01
sg65
F-1.0
sg13
I240
sg66
F66.5
sbag1839
ag0
(g46
g2
Ntp1853
Rp1854
(dp1855
g12
I0
sg50
I0
sg14
I00
sg15
g51
sg52
I0
sg53
S'COF'
p1856
sg55
g56
sg19
g0
(g20
g2
Ntp1857
Rp1858
(dp1859
g24
S'COF'
p1860
sg26
I224468085
sg27
S'100'
p1861
sg28
S'COF'
p1862
sg30
S'OPT'
p1863
sg32
I00
sg33
Nsg35
g78
sg36
S'20160422'
p1864
sg37
S'USD'
p1865
sg39
S'COF   160422P00075000'
p1866
sg41
S'SMART'
p1867
sg43
F75.0
sbsg57
g1864
sg58
I0
sg59
g10
sg60
I0
sg61
I0
sg62
F-1.0
sg63
I0
sg64
I01
sg65
F-1.0
sg13
I242
sg66
F75.0
sbag1854
ag0
(g46
g2
Ntp1868
Rp1869
(dp1870
g12
I0
sg50
I0
sg14
I00
sg15
g51
sg52
I0
sg53
S'COF'
p1871
sg55
g56
sg19
g0
(g20
g2
Ntp1872
Rp1873
(dp1874
g24
S'COF'
p1875
sg26
I224474134
sg27
S'100'
p1876
sg28
S'COF'
p1877
sg30
S'OPT'
p1878
sg32
I00
sg33
Nsg35
g78
sg36
S'20160422'
p1879
sg37
S'USD'
p1880
sg39
S'COF   160422P00070000'
p1881
sg41
S'SMART'
p1882
sg43
F70.0
sbsg57
g1879
sg58
I0
sg59
g10
sg60
I0
sg61
F0.4
sg62
F-1.0
sg63
I0
sg64
I01
sg65
F-1.0
sg13
I244
sg66
F70.0
sbag1869
ag0
(g46
g2
Ntp1883
Rp1884
(dp1885
g12
I0
sg50
I0
sg14
I00
sg15
g51
sg52
I0
sg53
S'COF'
p1886
sg55
g56
sg19
g0
(g20
g2
Ntp1887
Rp1888
(dp1889
g24
S'COF'
p1890
sg26
I224494056
sg27
S'100'
p1891
sg28
S'COF'
p1892
sg30
S'OPT'
p1893
sg32
I00
sg33
Nsg35
g78
sg36
S'20160422'
p1894
sg37
S'USD'
p1895
sg39
S'COF   160422P00072500'
p1896
sg41
S'SMART'
p1897
sg43
F72.5
sbsg57
g1894
sg58
I0
sg59
g10
sg60
I0
sg61
I0
sg62
I0
sg63
I0
sg64
I01
sg65
I0
sg13
I246
sg66
F72.5
sbag1884
ag0
(g46
g2
Ntp1898
Rp1899
(dp1900
g12
I0
sg50
I0
sg14
I00
sg15
g51
sg52
I0
sg53
S'COF'
p1901
sg55
g56
sg19
g0
(g20
g2
Ntp1902
Rp1903
(dp1904
g24
S'COF'
p1905
sg26
I224497395
sg27
S'100'
p1906
sg28
S'COF'
p1907
sg30
S'OPT'
p1908
sg32
I00
sg33
Nsg35
g78
sg36
S'20160422'
p1909
sg37
S'USD'
p1910
sg39
S'COF   160422P00060000'
p1911
sg41
S'SMART'
p1912
sg43
F60.0
sbsg57
g1909
sg58
I0
sg59
g10
sg60
I0
sg61
I0
sg62
F-1.0
sg63
I0
sg64
I01
sg65
F-1.0
sg13
I248
sg66
F60.0
sbag1899
ag0
(g46
g2
Ntp1913
Rp1914
(dp1915
g12
I0
sg50
I0
sg14
I00
sg15
g51
sg52
I0
sg53
S'COF'
p1916
sg55
g56
sg19
g0
(g20
g2
Ntp1917
Rp1918
(dp1919
g24
S'COF'
p1920
sg26
I224516436
sg27
S'100'
p1921
sg28
S'COF'
p1922
sg30
S'OPT'
p1923
sg32
I00
sg33
Nsg35
g78
sg36
S'20160422'
p1924
sg37
S'USD'
p1925
sg39
S'COF   160422P00058000'
p1926
sg41
S'SMART'
p1927
sg43
F58.0
sbsg57
g1924
sg58
I0
sg59
g10
sg60
I0
sg61
F0.0
sg62
F-1.0
sg63
I0
sg64
I01
sg65
F-1.0
sg13
I250
sg66
F58.0
sbag1914
ag0
(g46
g2
Ntp1928
Rp1929
(dp1930
g12
I0
sg50
I0
sg14
I00
sg15
g51
sg52
I0
sg53
S'COF'
p1931
sg55
g56
sg19
g0
(g20
g2
Ntp1932
Rp1933
(dp1934
g24
S'COF'
p1935
sg26
I224537149
sg27
S'100'
p1936
sg28
S'COF'
p1937
sg30
S'OPT'
p1938
sg32
I00
sg33
Nsg35
g78
sg36
S'20160422'
p1939
sg37
S'USD'
p1940
sg39
S'COF   160422P00068000'
p1941
sg41
S'SMART'
p1942
sg43
F68.0
sbsg57
g1939
sg58
I0
sg59
g10
sg60
I0
sg61
I0
sg62
F-1.0
sg63
I0
sg64
I01
sg65
F-1.0
sg13
I252
sg66
F68.0
sbag1929
ag0
(g46
g2
Ntp1943
Rp1944
(dp1945
g12
I0
sg50
I0
sg14
I00
sg15
g51
sg52
I0
sg53
S'COF'
p1946
sg55
g56
sg19
g0
(g20
g2
Ntp1947
Rp1948
(dp1949
g24
S'COF'
p1950
sg26
I224564478
sg27
S'100'
p1951
sg28
S'COF'
p1952
sg30
S'OPT'
p1953
sg32
I00
sg33
Nsg35
g78
sg36
S'20160422'
p1954
sg37
S'USD'
p1955
sg39
S'COF   160422P00064500'
p1956
sg41
S'SMART'
p1957
sg43
F64.5
sbsg57
g1954
sg58
I0
sg59
g10
sg60
I0
sg61
I0
sg62
I0
sg63
I0
sg64
I01
sg65
I0
sg13
I254
sg66
F64.5
sbag1944
ag0
(g46
g2
Ntp1958
Rp1959
(dp1960
g12
I0
sg50
I0
sg14
I00
sg15
g51
sg52
I0
sg53
S'COF'
p1961
sg55
g56
sg19
g0
(g20
g2
Ntp1962
Rp1963
(dp1964
g24
S'COF'
p1965
sg26
I224591862
sg27
S'100'
p1966
sg28
S'COF'
p1967
sg30
S'OPT'
p1968
sg32
I00
sg33
Nsg35
g78
sg36
S'20160422'
p1969
sg37
S'USD'
p1970
sg39
S'COF   160422P00062500'
p1971
sg41
S'SMART'
p1972
sg43
F62.5
sbsg57
g1969
sg58
I0
sg59
g10
sg60
I0
sg61
I0
sg62
F-1.0
sg63
I0
sg64
I01
sg65
F-1.0
sg13
I256
sg66
F62.5
sbag1959
ag0
(g46
g2
Ntp1973
Rp1974
(dp1975
g12
I0
sg50
I0
sg14
I00
sg15
g51
sg52
I0
sg53
S'COF'
p1976
sg55
g56
sg19
g0
(g20
g2
Ntp1977
Rp1978
(dp1979
g24
S'COF'
p1980
sg26
I224596916
sg27
S'100'
p1981
sg28
S'COF'
p1982
sg30
S'OPT'
p1983
sg32
I00
sg33
Nsg35
g78
sg36
S'20160422'
p1984
sg37
S'USD'
p1985
sg39
S'COF   160422P00059000'
p1986
sg41
S'SMART'
p1987
sg43
F59.0
sbsg57
g1984
sg58
I0
sg59
g10
sg60
I0
sg61
I0
sg62
I0
sg63
I0
sg64
I01
sg65
I0
sg13
I258
sg66
F59.0
sbag1974
ag0
(g46
g2
Ntp1988
Rp1989
(dp1990
g12
I0
sg50
I0
sg14
I00
sg15
g51
sg52
I0
sg53
S'COF'
p1991
sg55
g56
sg19
g0
(g20
g2
Ntp1992
Rp1993
(dp1994
g24
S'COF'
p1995
sg26
I224596923
sg27
S'100'
p1996
sg28
S'COF'
p1997
sg30
S'OPT'
p1998
sg32
I00
sg33
Nsg35
g78
sg36
S'20160422'
p1999
sg37
S'USD'
p2000
sg39
S'COF   160422P00061500'
p2001
sg41
S'SMART'
p2002
sg43
F61.5
sbsg57
g1999
sg58
I0
sg59
g10
sg60
I0
sg61
I0
sg62
I0
sg63
I0
sg64
I01
sg65
I0
sg13
I260
sg66
F61.5
sbag1989
ag0
(g46
g2
Ntp2003
Rp2004
(dp2005
g12
I0
sg50
I0
sg14
I00
sg15
g51
sg52
I0
sg53
S'COF'
p2006
sg55
g56
sg19
g0
(g20
g2
Ntp2007
Rp2008
(dp2009
g24
S'COF'
p2010
sg26
I224596926
sg27
S'100'
p2011
sg28
S'COF'
p2012
sg30
S'OPT'
p2013
sg32
I00
sg33
Nsg35
g78
sg36
S'20160422'
p2014
sg37
S'USD'
p2015
sg39
S'COF   160422P00061000'
p2016
sg41
S'SMART'
p2017
sg43
F61.0
sbsg57
g2014
sg58
I0
sg59
g10
sg60
I0
sg61
I0
sg62
I0
sg63
I0
sg64
I01
sg65
I0
sg13
I262
sg66
F61.0
sbag2004
ag0
(g46
g2
Ntp2018
Rp2019
(dp2020
g12
I0
sg50
I0
sg14
I00
sg15
g51
sg52
I0
sg53
S'COF'
p2021
sg55
g56
sg19
g0
(g20
g2
Ntp2022
Rp2023
(dp2024
g24
S'COF'
p2025
sg26
I224596931
sg27
S'100'
p2026
sg28
S'COF'
p2027
sg30
S'OPT'
p2028
sg32
I00
sg33
Nsg35
g78
sg36
S'20160422'
p2029
sg37
S'USD'
p2030
sg39
S'COF   160422P00062000'
p2031
sg41
S'SMART'
p2032
sg43
F62.0
sbsg57
g2029
sg58
I0
sg59
g10
sg60
I0
sg61
I0
sg62
I0
sg63
I0
sg64
I01
sg65
I0
sg13
I264
sg66
F62.0
sbag2019
ag0
(g46
g2
Ntp2033
Rp2034
(dp2035
g12
I0
sg50
I0
sg14
I00
sg15
g51
sg52
I0
sg53
S'COF'
p2036
sg55
g56
sg19
g0
(g20
g2
Ntp2037
Rp2038
(dp2039
g24
S'COF'
p2040
sg26
I224596934
sg27
S'100'
p2041
sg28
S'COF'
p2042
sg30
S'OPT'
p2043
sg32
I00
sg33
Nsg35
g78
sg36
S'20160422'
p2044
sg37
S'USD'
p2045
sg39
S'COF   160422P00063500'
p2046
sg41
S'SMART'
p2047
sg43
F63.5
sbsg57
g2044
sg58
I0
sg59
g10
sg60
I0
sg61
I0
sg62
I0
sg63
I0
sg64
I01
sg65
I0
sg13
I266
sg66
F63.5
sbag2034
ag0
(g46
g2
Ntp2048
Rp2049
(dp2050
g12
I0
sg50
I0
sg14
I00
sg15
g51
sg52
I0
sg53
S'COF'
p2051
sg55
g56
sg19
g0
(g20
g2
Ntp2052
Rp2053
(dp2054
g24
S'COF'
p2055
sg26
I224596937
sg27
S'100'
p2056
sg28
S'COF'
p2057
sg30
S'OPT'
p2058
sg32
I00
sg33
Nsg35
g78
sg36
S'20160422'
p2059
sg37
S'USD'
p2060
sg39
S'COF   160422P00063000'
p2061
sg41
S'SMART'
p2062
sg43
F63.0
sbsg57
g2059
sg58
I0
sg59
g10
sg60
I0
sg61
I0
sg62
I0
sg63
I0
sg64
I01
sg65
I0
sg13
I268
sg66
F63.0
sbag2049
ag0
(g46
g2
Ntp2063
Rp2064
(dp2065
g12
I0
sg50
I0
sg14
I00
sg15
g51
sg52
I0
sg53
S'COF'
p2066
sg55
g56
sg19
g0
(g20
g2
Ntp2067
Rp2068
(dp2069
g24
S'COF'
p2070
sg26
I224596940
sg27
S'100'
p2071
sg28
S'COF'
p2072
sg30
S'OPT'
p2073
sg32
I00
sg33
Nsg35
g78
sg36
S'20160422'
p2074
sg37
S'USD'
p2075
sg39
S'COF   160422P00064000'
p2076
sg41
S'SMART'
p2077
sg43
F64.0
sbsg57
g2074
sg58
I0
sg59
g10
sg60
I0
sg61
I0
sg62
I0
sg63
I0
sg64
I01
sg65
I0
sg13
I270
sg66
F64.0
sbag2064
ag0
(g46
g2
Ntp2078
Rp2079
(dp2080
g12
I0
sg50
I0
sg14
I00
sg15
g51
sg52
I0
sg53
S'COF'
p2081
sg55
g56
sg19
g0
(g20
g2
Ntp2082
Rp2083
(dp2084
g24
S'COF'
p2085
sg26
I224596946
sg27
S'100'
p2086
sg28
S'COF'
p2087
sg30
S'OPT'
p2088
sg32
I00
sg33
Nsg35
g78
sg36
S'20160422'
p2089
sg37
S'USD'
p2090
sg39
S'COF   160422P00065500'
p2091
sg41
S'SMART'
p2092
sg43
F65.5
sbsg57
g2089
sg58
I0
sg59
g10
sg60
I0
sg61
I0
sg62
I0
sg63
I0
sg64
I01
sg65
I0
sg13
I272
sg66
F65.5
sbag2079
ag0
(g46
g2
Ntp2093
Rp2094
(dp2095
g12
I0
sg50
I0
sg14
I00
sg15
g51
sg52
I0
sg53
S'COF'
p2096
sg55
g56
sg19
g0
(g20
g2
Ntp2097
Rp2098
(dp2099
g24
S'COF'
p2100
sg26
I224596951
sg27
S'100'
p2101
sg28
S'COF'
p2102
sg30
S'OPT'
p2103
sg32
I00
sg33
Nsg35
g78
sg36
S'20160422'
p2104
sg37
S'USD'
p2105
sg39
S'COF   160422P00065000'
p2106
sg41
S'SMART'
p2107
sg43
F65.0
sbsg57
g2104
sg58
I0
sg59
g10
sg60
I0
sg61
I0
sg62
I0
sg63
I0
sg64
I01
sg65
I0
sg13
I274
sg66
F65.0
sbag2094
ag0
(g46
g2
Ntp2108
Rp2109
(dp2110
g12
I0
sg50
I0
sg14
I00
sg15
g51
sg52
I0
sg53
S'COF'
p2111
sg55
g56
sg19
g0
(g20
g2
Ntp2112
Rp2113
(dp2114
g24
S'COF'
p2115
sg26
I224596952
sg27
S'100'
p2116
sg28
S'COF'
p2117
sg30
S'OPT'
p2118
sg32
I00
sg33
Nsg35
g78
sg36
S'20160422'
p2119
sg37
S'USD'
p2120
sg39
S'COF   160422P00066000'
p2121
sg41
S'SMART'
p2122
sg43
F66.0
sbsg57
g2119
sg58
I0
sg59
g10
sg60
I0
sg61
I0
sg62
F-1.0
sg63
I0
sg64
I01
sg65
F-1.0
sg13
I276
sg66
F66.0
sbag2109
ag0
(g46
g2
Ntp2123
Rp2124
(dp2125
g12
I0
sg50
I0
sg14
I00
sg15
g51
sg52
I0
sg53
S'COF'
p2126
sg55
g56
sg19
g0
(g20
g2
Ntp2127
Rp2128
(dp2129
g24
S'COF'
p2130
sg26
I224596957
sg27
S'100'
p2131
sg28
S'COF'
p2132
sg30
S'OPT'
p2133
sg32
I00
sg33
Nsg35
g78
sg36
S'20160422'
p2134
sg37
S'USD'
p2135
sg39
S'COF   160422P00067500'
p2136
sg41
S'SMART'
p2137
sg43
F67.5
sbsg57
g2134
sg58
I0
sg59
g10
sg60
I0
sg61
I0
sg62
I0
sg63
I0
sg64
I01
sg65
I0
sg13
I278
sg66
F67.5
sbag2124
ag0
(g46
g2
Ntp2138
Rp2139
(dp2140
g12
I0
sg50
I0
sg14
I00
sg15
g51
sg52
I0
sg53
S'COF'
p2141
sg55
g56
sg19
g0
(g20
g2
Ntp2142
Rp2143
(dp2144
g24
S'COF'
p2145
sg26
I224596961
sg27
S'100'
p2146
sg28
S'COF'
p2147
sg30
S'OPT'
p2148
sg32
I00
sg33
Nsg35
g78
sg36
S'20160422'
p2149
sg37
S'USD'
p2150
sg39
S'COF   160422P00069500'
p2151
sg41
S'SMART'
p2152
sg43
F69.5
sbsg57
g2149
sg58
I0
sg59
g10
sg60
I0
sg61
I0
sg62
I0
sg63
I0
sg64
I01
sg65
I0
sg13
I280
sg66
F69.5
sbag2139
ag0
(g46
g2
Ntp2153
Rp2154
(dp2155
g12
I0
sg50
I0
sg14
I00
sg15
g51
sg52
I0
sg53
S'COF'
p2156
sg55
g56
sg19
g0
(g20
g2
Ntp2157
Rp2158
(dp2159
g24
S'COF'
p2160
sg26
I224596964
sg27
S'100'
p2161
sg28
S'COF'
p2162
sg30
S'OPT'
p2163
sg32
I00
sg33
Nsg35
g78
sg36
S'20160422'
p2164
sg37
S'USD'
p2165
sg39
S'COF   160422P00069000'
p2166
sg41
S'SMART'
p2167
sg43
F69.0
sbsg57
g2164
sg58
I0
sg59
g10
sg60
I0
sg61
I0
sg62
I0
sg63
I0
sg64
I01
sg65
I0
sg13
I282
sg66
F69.0
sbag2154
ag0
(g46
g2
Ntp2168
Rp2169
(dp2170
g12
I0
sg50
I0
sg14
I00
sg15
g51
sg52
I0
sg53
S'COF'
p2171
sg55
g56
sg19
g0
(g20
g2
Ntp2172
Rp2173
(dp2174
g24
S'COF'
p2175
sg26
I224596971
sg27
S'100'
p2176
sg28
S'COF'
p2177
sg30
S'OPT'
p2178
sg32
I00
sg33
Nsg35
g78
sg36
S'20160422'
p2179
sg37
S'USD'
p2180
sg39
S'COF   160422P00071500'
p2181
sg41
S'SMART'
p2182
sg43
F71.5
sbsg57
g2179
sg58
I0
sg59
g10
sg60
I0
sg61
I0
sg62
I0
sg63
I0
sg64
I01
sg65
I0
sg13
I284
sg66
F71.5
sbag2169
ag0
(g46
g2
Ntp2183
Rp2184
(dp2185
g12
I0
sg50
I0
sg14
I00
sg15
g51
sg52
I0
sg53
S'COF'
p2186
sg55
g56
sg19
g0
(g20
g2
Ntp2187
Rp2188
(dp2189
g24
S'COF'
p2190
sg26
I224596974
sg27
S'100'
p2191
sg28
S'COF'
p2192
sg30
S'OPT'
p2193
sg32
I00
sg33
Nsg35
g78
sg36
S'20160422'
p2194
sg37
S'USD'
p2195
sg39
S'COF   160422P00071000'
p2196
sg41
S'SMART'
p2197
sg43
F71.0
sbsg57
g2194
sg58
I0
sg59
g10
sg60
I0
sg61
I0
sg62
I0
sg63
I0
sg64
I01
sg65
I0
sg13
I286
sg66
F71.0
sbag2184
ag0
(g46
g2
Ntp2198
Rp2199
(dp2200
g12
I0
sg50
I0
sg14
I00
sg15
g51
sg52
I0
sg53
S'COF'
p2201
sg55
g56
sg19
g0
(g20
g2
Ntp2202
Rp2203
(dp2204
g24
S'COF'
p2205
sg26
I224596976
sg27
S'100'
p2206
sg28
S'COF'
p2207
sg30
S'OPT'
p2208
sg32
I00
sg33
Nsg35
g78
sg36
S'20160422'
p2209
sg37
S'USD'
p2210
sg39
S'COF   160422P00072000'
p2211
sg41
S'SMART'
p2212
sg43
F72.0
sbsg57
g2209
sg58
I0
sg59
g10
sg60
I0
sg61
I0
sg62
I0
sg63
I0
sg64
I01
sg65
I0
sg13
I288
sg66
F72.0
sbag2199
ag0
(g46
g2
Ntp2213
Rp2214
(dp2215
g12
I0
sg50
I0
sg14
I00
sg15
g51
sg52
I0
sg53
S'COF'
p2216
sg55
g56
sg19
g0
(g20
g2
Ntp2217
Rp2218
(dp2219
g24
S'COF'
p2220
sg26
I224596981
sg27
S'100'
p2221
sg28
S'COF'
p2222
sg30
S'OPT'
p2223
sg32
I00
sg33
Nsg35
g78
sg36
S'20160422'
p2224
sg37
S'USD'
p2225
sg39
S'COF   160422P00073500'
p2226
sg41
S'SMART'
p2227
sg43
F73.5
sbsg57
g2224
sg58
I0
sg59
g10
sg60
I0
sg61
I0
sg62
I0
sg63
I0
sg64
I01
sg65
I0
sg13
I290
sg66
F73.5
sbag2214
ag0
(g46
g2
Ntp2228
Rp2229
(dp2230
g12
I0
sg50
I0
sg14
I00
sg15
g51
sg52
I0
sg53
S'COF'
p2231
sg55
g56
sg19
g0
(g20
g2
Ntp2232
Rp2233
(dp2234
g24
S'COF'
p2235
sg26
I224596986
sg27
S'100'
p2236
sg28
S'COF'
p2237
sg30
S'OPT'
p2238
sg32
I00
sg33
Nsg35
g78
sg36
S'20160422'
p2239
sg37
S'USD'
p2240
sg39
S'COF   160422P00073000'
p2241
sg41
S'SMART'
p2242
sg43
F73.0
sbsg57
g2239
sg58
I0
sg59
g10
sg60
I0
sg61
I0
sg62
I0
sg63
I0
sg64
I01
sg65
I0
sg13
I292
sg66
F73.0
sbag2229
ag0
(g46
g2
Ntp2243
Rp2244
(dp2245
g12
I0
sg50
I0
sg14
I00
sg15
g51
sg52
I0
sg53
S'COF'
p2246
sg55
g56
sg19
g0
(g20
g2
Ntp2247
Rp2248
(dp2249
g24
S'COF'
p2250
sg26
I224596991
sg27
S'100'
p2251
sg28
S'COF'
p2252
sg30
S'OPT'
p2253
sg32
I00
sg33
Nsg35
g78
sg36
S'20160422'
p2254
sg37
S'USD'
p2255
sg39
S'COF   160422P00074500'
p2256
sg41
S'SMART'
p2257
sg43
F74.5
sbsg57
g2254
sg58
I0
sg59
g10
sg60
I0
sg61
I0
sg62
I0
sg63
I0
sg64
I01
sg65
I0
sg13
I294
sg66
F74.5
sbag2244
ag0
(g46
g2
Ntp2258
Rp2259
(dp2260
g12
I0
sg50
I0
sg14
I00
sg15
g51
sg52
I0
sg53
S'COF'
p2261
sg55
g56
sg19
g0
(g20
g2
Ntp2262
Rp2263
(dp2264
g24
S'COF'
p2265
sg26
I224596994
sg27
S'100'
p2266
sg28
S'COF'
p2267
sg30
S'OPT'
p2268
sg32
I00
sg33
Nsg35
g78
sg36
S'20160422'
p2269
sg37
S'USD'
p2270
sg39
S'COF   160422P00074000'
p2271
sg41
S'SMART'
p2272
sg43
F74.0
sbsg57
g2269
sg58
I0
sg59
g10
sg60
I0
sg61
I0
sg62
I0
sg63
I0
sg64
I01
sg65
I0
sg13
I296
sg66
F74.0
sbag2259
ag0
(g46
g2
Ntp2273
Rp2274
(dp2275
g12
I0
sg50
I0
sg14
I00
sg15
g51
sg52
I0
sg53
S'COF'
p2276
sg55
g56
sg19
g0
(g20
g2
Ntp2277
Rp2278
(dp2279
g24
S'COF'
p2280
sg26
I224596999
sg27
S'100'
p2281
sg28
S'COF'
p2282
sg30
S'OPT'
p2283
sg32
I00
sg33
Nsg35
g78
sg36
S'20160422'
p2284
sg37
S'USD'
p2285
sg39
S'COF   160422P00075500'
p2286
sg41
S'SMART'
p2287
sg43
F75.5
sbsg57
g2284
sg58
I0
sg59
g10
sg60
I0
sg61
I0
sg62
I0
sg63
I0
sg64
I01
sg65
I0
sg13
I298
sg66
F75.5
sbag2274
ag0
(g46
g2
Ntp2288
Rp2289
(dp2290
g12
I0
sg50
I0
sg14
I00
sg15
g51
sg52
I0
sg53
S'COF'
p2291
sg55
g56
sg19
g0
(g20
g2
Ntp2292
Rp2293
(dp2294
g24
S'COF'
p2295
sg26
I224597000
sg27
S'100'
p2296
sg28
S'COF'
p2297
sg30
S'OPT'
p2298
sg32
I00
sg33
Nsg35
g78
sg36
S'20160422'
p2299
sg37
S'USD'
p2300
sg39
S'COF   160422P00076000'
p2301
sg41
S'SMART'
p2302
sg43
F76.0
sbsg57
g2299
sg58
I0
sg59
g10
sg60
I0
sg61
I0
sg62
I0
sg63
I0
sg64
I01
sg65
I0
sg13
I300
sg66
F76.0
sbag2289
ag0
(g46
g2
Ntp2303
Rp2304
(dp2305
g12
I0
sg50
I0
sg14
I00
sg15
g51
sg52
I0
sg53
S'COF'
p2306
sg55
g56
sg19
g0
(g20
g2
Ntp2307
Rp2308
(dp2309
g24
S'COF'
p2310
sg26
I224597005
sg27
S'100'
p2311
sg28
S'COF'
p2312
sg30
S'OPT'
p2313
sg32
I00
sg33
Nsg35
g78
sg36
S'20160422'
p2314
sg37
S'USD'
p2315
sg39
S'COF   160422P00077000'
p2316
sg41
S'SMART'
p2317
sg43
F77.0
sbsg57
g2314
sg58
I0
sg59
g10
sg60
I0
sg61
I0
sg62
I0
sg63
I0
sg64
I01
sg65
I0
sg13
I302
sg66
F77.0
sbag2304
ag0
(g46
g2
Ntp2318
Rp2319
(dp2320
g12
I0
sg50
I0
sg14
I00
sg15
g51
sg52
I0
sg53
S'COF'
p2321
sg55
g56
sg19
g0
(g20
g2
Ntp2322
Rp2323
(dp2324
g24
S'COF'
p2325
sg26
I224715793
sg27
S'100'
p2326
sg28
S'COF'
p2327
sg30
S'OPT'
p2328
sg32
I00
sg33
Nsg35
g78
sg36
S'20160422'
p2329
sg37
S'USD'
p2330
sg39
S'COF   160422P00080000'
p2331
sg41
S'SMART'
p2332
sg43
F80.0
sbsg57
g2329
sg58
I0
sg59
g10
sg60
I0
sg61
I0
sg62
I0
sg63
I0
sg64
I01
sg65
I0
sg13
I304
sg66
F80.0
sbag2319
ag0
(g46
g2
Ntp2333
Rp2334
(dp2335
g12
I0
sg50
I0
sg14
I00
sg15
g51
sg52
I0
sg53
S'COF'
p2336
sg55
g56
sg19
g0
(g20
g2
Ntp2337
Rp2338
(dp2339
g24
S'COF'
p2340
sg26
I224717469
sg27
S'100'
p2341
sg28
S'COF'
p2342
sg30
S'OPT'
p2343
sg32
I00
sg33
Nsg35
g78
sg36
S'20160422'
p2344
sg37
S'USD'
p2345
sg39
S'COF   160422P00055000'
p2346
sg41
S'SMART'
p2347
sg43
F55.0
sbsg57
g2344
sg58
I0
sg59
g10
sg60
I0
sg61
I0
sg62
I0
sg63
I0
sg64
I01
sg65
I0
sg13
I306
sg66
F55.0
sbag2334
ag0
(g46
g2
Ntp2348
Rp2349
(dp2350
g12
I0
sg50
I0
sg14
I00
sg15
g51
sg52
I0
sg53
S'COF'
p2351
sg55
g56
sg19
g0
(g20
g2
Ntp2352
Rp2353
(dp2354
g24
S'COF'
p2355
sg26
I224719477
sg27
S'100'
p2356
sg28
S'COF'
p2357
sg30
S'OPT'
p2358
sg32
I00
sg33
Nsg35
g78
sg36
S'20160422'
p2359
sg37
S'USD'
p2360
sg39
S'COF   160422P00045000'
p2361
sg41
S'SMART'
p2362
sg43
F45.0
sbsg57
g2359
sg58
I0
sg59
g10
sg60
I0
sg61
I0
sg62
I0
sg63
I0
sg64
I01
sg65
I0
sg13
I308
sg66
F45.0
sbag2349
ag0
(g46
g2
Ntp2363
Rp2364
(dp2365
g12
I0
sg50
I0
sg14
I00
sg15
g51
sg52
I0
sg53
S'COF'
p2366
sg55
g56
sg19
g0
(g20
g2
Ntp2367
Rp2368
(dp2369
g24
S'COF'
p2370
sg26
I224719578
sg27
S'100'
p2371
sg28
S'COF'
p2372
sg30
S'OPT'
p2373
sg32
I00
sg33
Nsg35
g78
sg36
S'20160916'
p2374
sg37
S'USD'
p2375
sg39
S'COF   160916P00077500'
p2376
sg41
S'SMART'
p2377
sg43
F77.5
sbsg57
g2374
sg58
I0
sg59
g10
sg60
I0
sg61
I0
sg62
I0
sg63
I0
sg64
I01
sg65
I0
sg13
I310
sg66
F77.5
sbag2364
ag0
(g46
g2
Ntp2378
Rp2379
(dp2380
g12
I0
sg50
I0
sg14
I00
sg15
g51
sg52
I0
sg53
S'COF'
p2381
sg55
g56
sg19
g0
(g20
g2
Ntp2382
Rp2383
(dp2384
g24
S'COF'
p2385
sg26
I224728105
sg27
S'100'
p2386
sg28
S'COF'
p2387
sg30
S'OPT'
p2388
sg32
I00
sg33
Nsg35
g78
sg36
S'20160422'
p2389
sg37
S'USD'
p2390
sg39
S'COF   160422P00050000'
p2391
sg41
S'SMART'
p2392
sg43
F50.0
sbsg57
g2389
sg58
I0
sg59
g10
sg60
I0
sg61
I0
sg62
I0
sg63
I0
sg64
I01
sg65
I0
sg13
I312
sg66
F50.0
sbag2379
ag0
(g46
g2
Ntp2393
Rp2394
(dp2395
g12
I0
sg50
I0
sg14
I00
sg15
g51
sg52
I0
sg53
S'COF'
p2396
sg55
g56
sg19
g0
(g20
g2
Ntp2397
Rp2398
(dp2399
g24
S'COF'
p2400
sg26
I225169161
sg27
S'100'
p2401
sg28
S'COF'
p2402
sg30
S'OPT'
p2403
sg32
I00
sg33
Nsg35
g78
sg36
S'20160429'
p2404
sg37
S'USD'
p2405
sg39
S'COF   160429P00060000'
p2406
sg41
S'SMART'
p2407
sg43
F60.0
sbsg57
g2404
sg58
I0
sg59
g10
sg60
I0
sg61
I0
sg62
I0
sg63
I0
sg64
I01
sg65
I0
sg13
I314
sg66
F60.0
sbag2394
ag0
(g46
g2
Ntp2408
Rp2409
(dp2410
g12
I0
sg50
I0
sg14
I00
sg15
g51
sg52
I0
sg53
S'COF'
p2411
sg55
g56
sg19
g0
(g20
g2
Ntp2412
Rp2413
(dp2414
g24
S'COF'
p2415
sg26
I225169164
sg27
S'100'
p2416
sg28
S'COF'
p2417
sg30
S'OPT'
p2418
sg32
I00
sg33
Nsg35
g78
sg36
S'20160429'
p2419
sg37
S'USD'
p2420
sg39
S'COF   160429P00061500'
p2421
sg41
S'SMART'
p2422
sg43
F61.5
sbsg57
g2419
sg58
I0
sg59
g10
sg60
I0
sg61
I0
sg62
I0
sg63
I0
sg64
I01
sg65
I0
sg13
I316
sg66
F61.5
sbag2409
ag0
(g46
g2
Ntp2423
Rp2424
(dp2425
g12
I0
sg50
I0
sg14
I00
sg15
g51
sg52
I0
sg53
S'COF'
p2426
sg55
g56
sg19
g0
(g20
g2
Ntp2427
Rp2428
(dp2429
g24
S'COF'
p2430
sg26
I225169170
sg27
S'100'
p2431
sg28
S'COF'
p2432
sg30
S'OPT'
p2433
sg32
I00
sg33
Nsg35
g78
sg36
S'20160429'
p2434
sg37
S'USD'
p2435
sg39
S'COF   160429P00061000'
p2436
sg41
S'SMART'
p2437
sg43
F61.0
sbsg57
g2434
sg58
I0
sg59
g10
sg60
I0
sg61
I0
sg62
I0
sg63
I0
sg64
I01
sg65
I0
sg13
I318
sg66
F61.0
sbag2424
ag0
(g46
g2
Ntp2438
Rp2439
(dp2440
g12
I0
sg50
I0
sg14
I00
sg15
g51
sg52
I0
sg53
S'COF'
p2441
sg55
g56
sg19
g0
(g20
g2
Ntp2442
Rp2443
(dp2444
g24
S'COF'
p2445
sg26
I225169175
sg27
S'100'
p2446
sg28
S'COF'
p2447
sg30
S'OPT'
p2448
sg32
I00
sg33
Nsg35
g78
sg36
S'20160429'
p2449
sg37
S'USD'
p2450
sg39
S'COF   160429P00062500'
p2451
sg41
S'SMART'
p2452
sg43
F62.5
sbsg57
g2449
sg58
I0
sg59
g10
sg60
I0
sg61
I0
sg62
I0
sg63
I0
sg64
I01
sg65
I0
sg13
I320
sg66
F62.5
sbag2439
ag0
(g46
g2
Ntp2453
Rp2454
(dp2455
g12
I0
sg50
I0
sg14
I00
sg15
g51
sg52
I0
sg53
S'COF'
p2456
sg55
g56
sg19
g0
(g20
g2
Ntp2457
Rp2458
(dp2459
g24
S'COF'
p2460
sg26
I225169176
sg27
S'100'
p2461
sg28
S'COF'
p2462
sg30
S'OPT'
p2463
sg32
I00
sg33
Nsg35
g78
sg36
S'20160429'
p2464
sg37
S'USD'
p2465
sg39
S'COF   160429P00062000'
p2466
sg41
S'SMART'
p2467
sg43
F62.0
sbsg57
g2464
sg58
I0
sg59
g10
sg60
I0
sg61
I0
sg62
I0
sg63
I0
sg64
I01
sg65
I0
sg13
I322
sg66
F62.0
sbag2454
ag0
(g46
g2
Ntp2468
Rp2469
(dp2470
g12
I0
sg50
I0
sg14
I00
sg15
g51
sg52
I0
sg53
S'COF'
p2471
sg55
g56
sg19
g0
(g20
g2
Ntp2472
Rp2473
(dp2474
g24
S'COF'
p2475
sg26
I225169181
sg27
S'100'
p2476
sg28
S'COF'
p2477
sg30
S'OPT'
p2478
sg32
I00
sg33
Nsg35
g78
sg36
S'20160429'
p2479
sg37
S'USD'
p2480
sg39
S'COF   160429P00063500'
p2481
sg41
S'SMART'
p2482
sg43
F63.5
sbsg57
g2479
sg58
I0
sg59
g10
sg60
I0
sg61
I0
sg62
I0
sg63
I0
sg64
I01
sg65
I0
sg13
I324
sg66
F63.5
sbag2469
ag0
(g46
g2
Ntp2483
Rp2484
(dp2485
g12
I0
sg50
I0
sg14
I00
sg15
g51
sg52
I0
sg53
S'COF'
p2486
sg55
g56
sg19
g0
(g20
g2
Ntp2487
Rp2488
(dp2489
g24
S'COF'
p2490
sg26
I225169185
sg27
S'100'
p2491
sg28
S'COF'
p2492
sg30
S'OPT'
p2493
sg32
I00
sg33
Nsg35
g78
sg36
S'20160429'
p2494
sg37
S'USD'
p2495
sg39
S'COF   160429P00063000'
p2496
sg41
S'SMART'
p2497
sg43
F63.0
sbsg57
g2494
sg58
I0
sg59
g10
sg60
I0
sg61
I0
sg62
I0
sg63
I0
sg64
I01
sg65
I0
sg13
I326
sg66
F63.0
sbag2484
ag0
(g46
g2
Ntp2498
Rp2499
(dp2500
g12
I0
sg50
I0
sg14
I00
sg15
g51
sg52
I0
sg53
S'COF'
p2501
sg55
g56
sg19
g0
(g20
g2
Ntp2502
Rp2503
(dp2504
g24
S'COF'
p2505
sg26
I225169188
sg27
S'100'
p2506
sg28
S'COF'
p2507
sg30
S'OPT'
p2508
sg32
I00
sg33
Nsg35
g78
sg36
S'20160429'
p2509
sg37
S'USD'
p2510
sg39
S'COF   160429P00064500'
p2511
sg41
S'SMART'
p2512
sg43
F64.5
sbsg57
g2509
sg58
I0
sg59
g10
sg60
I0
sg61
I0
sg62
I0
sg63
I0
sg64
I01
sg65
I0
sg13
I328
sg66
F64.5
sbag2499
ag0
(g46
g2
Ntp2513
Rp2514
(dp2515
g12
I0
sg50
I0
sg14
I00
sg15
g51
sg52
I0
sg53
S'COF'
p2516
sg55
g56
sg19
g0
(g20
g2
Ntp2517
Rp2518
(dp2519
g24
S'COF'
p2520
sg26
I225169195
sg27
S'100'
p2521
sg28
S'COF'
p2522
sg30
S'OPT'
p2523
sg32
I00
sg33
Nsg35
g78
sg36
S'20160429'
p2524
sg37
S'USD'
p2525
sg39
S'COF   160429P00064000'
p2526
sg41
S'SMART'
p2527
sg43
F64.0
sbsg57
g2524
sg58
I0
sg59
g10
sg60
I0
sg61
I0
sg62
I0
sg63
I0
sg64
I01
sg65
I0
sg13
I330
sg66
F64.0
sbag2514
ag0
(g46
g2
Ntp2528
Rp2529
(dp2530
g12
I0
sg50
I0
sg14
I00
sg15
g51
sg52
I0
sg53
S'COF'
p2531
sg55
g56
sg19
g0
(g20
g2
Ntp2532
Rp2533
(dp2534
g24
S'COF'
p2535
sg26
I225169198
sg27
S'100'
p2536
sg28
S'COF'
p2537
sg30
S'OPT'
p2538
sg32
I00
sg33
Nsg35
g78
sg36
S'20160429'
p2539
sg37
S'USD'
p2540
sg39
S'COF   160429P00065500'
p2541
sg41
S'SMART'
p2542
sg43
F65.5
sbsg57
g2539
sg58
I0
sg59
g10
sg60
I0
sg61
I0
sg62
I0
sg63
I0
sg64
I01
sg65
I0
sg13
I332
sg66
F65.5
sbag2529
ag0
(g46
g2
Ntp2543
Rp2544
(dp2545
g12
I0
sg50
I0
sg14
I00
sg15
g51
sg52
I0
sg53
S'COF'
p2546
sg55
g56
sg19
g0
(g20
g2
Ntp2547
Rp2548
(dp2549
g24
S'COF'
p2550
sg26
I225169200
sg27
S'100'
p2551
sg28
S'COF'
p2552
sg30
S'OPT'
p2553
sg32
I00
sg33
Nsg35
g78
sg36
S'20160429'
p2554
sg37
S'USD'
p2555
sg39
S'COF   160429P00065000'
p2556
sg41
S'SMART'
p2557
sg43
F65.0
sbsg57
g2554
sg58
I0
sg59
g10
sg60
I0
sg61
I0
sg62
I0
sg63
I0
sg64
I01
sg65
I0
sg13
I334
sg66
F65.0
sbag2544
ag0
(g46
g2
Ntp2558
Rp2559
(dp2560
g12
I0
sg50
I0
sg14
I00
sg15
g51
sg52
I0
sg53
S'COF'
p2561
sg55
g56
sg19
g0
(g20
g2
Ntp2562
Rp2563
(dp2564
g24
S'COF'
p2565
sg26
I225169205
sg27
S'100'
p2566
sg28
S'COF'
p2567
sg30
S'OPT'
p2568
sg32
I00
sg33
Nsg35
g78
sg36
S'20160429'
p2569
sg37
S'USD'
p2570
sg39
S'COF   160429P00066500'
p2571
sg41
S'SMART'
p2572
sg43
F66.5
sbsg57
g2569
sg58
I0
sg59
g10
sg60
I0
sg61
I0
sg62
I0
sg63
I0
sg64
I01
sg65
I0
sg13
I336
sg66
F66.5
sbag2559
ag0
(g46
g2
Ntp2573
Rp2574
(dp2575
g12
I0
sg50
I0
sg14
I00
sg15
g51
sg52
I0
sg53
S'COF'
p2576
sg55
g56
sg19
g0
(g20
g2
Ntp2577
Rp2578
(dp2579
g24
S'COF'
p2580
sg26
I225169210
sg27
S'100'
p2581
sg28
S'COF'
p2582
sg30
S'OPT'
p2583
sg32
I00
sg33
Nsg35
g78
sg36
S'20160429'
p2584
sg37
S'USD'
p2585
sg39
S'COF   160429P00066000'
p2586
sg41
S'SMART'
p2587
sg43
F66.0
sbsg57
g2584
sg58
I0
sg59
g10
sg60
I0
sg61
I0
sg62
I0
sg63
I0
sg64
I01
sg65
I0
sg13
I338
sg66
F66.0
sbag2574
ag0
(g46
g2
Ntp2588
Rp2589
(dp2590
g12
I0
sg50
I0
sg14
I00
sg15
g51
sg52
I0
sg53
S'COF'
p2591
sg55
g56
sg19
g0
(g20
g2
Ntp2592
Rp2593
(dp2594
g24
S'COF'
p2595
sg26
I225169215
sg27
S'100'
p2596
sg28
S'COF'
p2597
sg30
S'OPT'
p2598
sg32
I00
sg33
Nsg35
g78
sg36
S'20160429'
p2599
sg37
S'USD'
p2600
sg39
S'COF   160429P00067500'
p2601
sg41
S'SMART'
p2602
sg43
F67.5
sbsg57
g2599
sg58
I0
sg59
g10
sg60
I0
sg61
I0
sg62
I0
sg63
I0
sg64
I01
sg65
I0
sg13
I340
sg66
F67.5
sbag2589
ag0
(g46
g2
Ntp2603
Rp2604
(dp2605
g12
I0
sg50
I0
sg14
I00
sg15
g51
sg52
I0
sg53
S'COF'
p2606
sg55
g56
sg19
g0
(g20
g2
Ntp2607
Rp2608
(dp2609
g24
S'COF'
p2610
sg26
I225169218
sg27
S'100'
p2611
sg28
S'COF'
p2612
sg30
S'OPT'
p2613
sg32
I00
sg33
Nsg35
g78
sg36
S'20160429'
p2614
sg37
S'USD'
p2615
sg39
S'COF   160429P00067000'
p2616
sg41
S'SMART'
p2617
sg43
F67.0
sbsg57
g2614
sg58
I0
sg59
g10
sg60
I0
sg61
I0
sg62
I0
sg63
I0
sg64
I01
sg65
I0
sg13
I342
sg66
F67.0
sbag2604
ag0
(g46
g2
Ntp2618
Rp2619
(dp2620
g12
I0
sg50
I0
sg14
I00
sg15
g51
sg52
I0
sg53
S'COF'
p2621
sg55
g56
sg19
g0
(g20
g2
Ntp2622
Rp2623
(dp2624
g24
S'COF'
p2625
sg26
I225169223
sg27
S'100'
p2626
sg28
S'COF'
p2627
sg30
S'OPT'
p2628
sg32
I00
sg33
Nsg35
g78
sg36
S'20160429'
p2629
sg37
S'USD'
p2630
sg39
S'COF   160429P00068500'
p2631
sg41
S'SMART'
p2632
sg43
F68.5
sbsg57
g2629
sg58
I0
sg59
g10
sg60
I0
sg61
I0
sg62
I0
sg63
I0
sg64
I01
sg65
I0
sg13
I344
sg66
F68.5
sbag2619
ag0
(g46
g2
Ntp2633
Rp2634
(dp2635
g12
I0
sg50
I0
sg14
I00
sg15
g51
sg52
I0
sg53
S'COF'
p2636
sg55
g56
sg19
g0
(g20
g2
Ntp2637
Rp2638
(dp2639
g24
S'COF'
p2640
sg26
I225169224
sg27
S'100'
p2641
sg28
S'COF'
p2642
sg30
S'OPT'
p2643
sg32
I00
sg33
Nsg35
g78
sg36
S'20160429'
p2644
sg37
S'USD'
p2645
sg39
S'COF   160429P00068000'
p2646
sg41
S'SMART'
p2647
sg43
F68.0
sbsg57
g2644
sg58
I0
sg59
g10
sg60
I0
sg61
I0
sg62
I0
sg63
I0
sg64
I01
sg65
I0
sg13
I346
sg66
F68.0
sbag2634
ag0
(g46
g2
Ntp2648
Rp2649
(dp2650
g12
I0
sg50
I0
sg14
I00
sg15
g51
sg52
I0
sg53
S'COF'
p2651
sg55
g56
sg19
g0
(g20
g2
Ntp2652
Rp2653
(dp2654
g24
S'COF'
p2655
sg26
I225169229
sg27
S'100'
p2656
sg28
S'COF'
p2657
sg30
S'OPT'
p2658
sg32
I00
sg33
Nsg35
g78
sg36
S'20160429'
p2659
sg37
S'USD'
p2660
sg39
S'COF   160429P00069500'
p2661
sg41
S'SMART'
p2662
sg43
F69.5
sbsg57
g2659
sg58
I0
sg59
g10
sg60
I0
sg61
I0
sg62
I0
sg63
I0
sg64
I01
sg65
I0
sg13
I348
sg66
F69.5
sbag2649
ag0
(g46
g2
Ntp2663
Rp2664
(dp2665
g12
I0
sg50
I0
sg14
I00
sg15
g51
sg52
I0
sg53
S'COF'
p2666
sg55
g56
sg19
g0
(g20
g2
Ntp2667
Rp2668
(dp2669
g24
S'COF'
p2670
sg26
I225169235
sg27
S'100'
p2671
sg28
S'COF'
p2672
sg30
S'OPT'
p2673
sg32
I00
sg33
Nsg35
g78
sg36
S'20160429'
p2674
sg37
S'USD'
p2675
sg39
S'COF   160429P00069000'
p2676
sg41
S'SMART'
p2677
sg43
F69.0
sbsg57
g2674
sg58
I0
sg59
g10
sg60
I0
sg61
I0
sg62
I0
sg63
I0
sg64
I01
sg65
I0
sg13
I350
sg66
F69.0
sbag2664
ag0
(g46
g2
Ntp2678
Rp2679
(dp2680
g12
I0
sg50
I0
sg14
I00
sg15
g51
sg52
I0
sg53
S'COF'
p2681
sg55
g56
sg19
g0
(g20
g2
Ntp2682
Rp2683
(dp2684
g24
S'COF'
p2685
sg26
I225169238
sg27
S'100'
p2686
sg28
S'COF'
p2687
sg30
S'OPT'
p2688
sg32
I00
sg33
Nsg35
g78
sg36
S'20160429'
p2689
sg37
S'USD'
p2690
sg39
S'COF   160429P00070500'
p2691
sg41
S'SMART'
p2692
sg43
F70.5
sbsg57
g2689
sg58
I0
sg59
g10
sg60
I0
sg61
I0
sg62
I0
sg63
I0
sg64
I01
sg65
I0
sg13
I352
sg66
F70.5
sbag2679
ag0
(g46
g2
Ntp2693
Rp2694
(dp2695
g12
I0
sg50
I0
sg14
I00
sg15
g51
sg52
I0
sg53
S'COF'
p2696
sg55
g56
sg19
g0
(g20
g2
Ntp2697
Rp2698
(dp2699
g24
S'COF'
p2700
sg26
I225169241
sg27
S'100'
p2701
sg28
S'COF'
p2702
sg30
S'OPT'
p2703
sg32
I00
sg33
Nsg35
g78
sg36
S'20160429'
p2704
sg37
S'USD'
p2705
sg39
S'COF   160429P00070000'
p2706
sg41
S'SMART'
p2707
sg43
F70.0
sbsg57
g2704
sg58
I0
sg59
g10
sg60
I0
sg61
I0
sg62
I0
sg63
I0
sg64
I01
sg65
I0
sg13
I354
sg66
F70.0
sbag2694
ag0
(g46
g2
Ntp2708
Rp2709
(dp2710
g12
I0
sg50
I0
sg14
I00
sg15
g51
sg52
I0
sg53
S'COF'
p2711
sg55
g56
sg19
g0
(g20
g2
Ntp2712
Rp2713
(dp2714
g24
S'COF'
p2715
sg26
I225169244
sg27
S'100'
p2716
sg28
S'COF'
p2717
sg30
S'OPT'
p2718
sg32
I00
sg33
Nsg35
g78
sg36
S'20160429'
p2719
sg37
S'USD'
p2720
sg39
S'COF   160429P00071500'
p2721
sg41
S'SMART'
p2722
sg43
F71.5
sbsg57
g2719
sg58
I0
sg59
g10
sg60
I0
sg61
I0
sg62
I0
sg63
I0
sg64
I01
sg65
I0
sg13
I356
sg66
F71.5
sbag2709
ag0
(g46
g2
Ntp2723
Rp2724
(dp2725
g12
I0
sg50
I0
sg14
I00
sg15
g51
sg52
I0
sg53
S'COF'
p2726
sg55
g56
sg19
g0
(g20
g2
Ntp2727
Rp2728
(dp2729
g24
S'COF'
p2730
sg26
I225169248
sg27
S'100'
p2731
sg28
S'COF'
p2732
sg30
S'OPT'
p2733
sg32
I00
sg33
Nsg35
g78
sg36
S'20160429'
p2734
sg37
S'USD'
p2735
sg39
S'COF   160429P00071000'
p2736
sg41
S'SMART'
p2737
sg43
F71.0
sbsg57
g2734
sg58
I0
sg59
g10
sg60
I0
sg61
I0
sg62
I0
sg63
I0
sg64
I01
sg65
I0
sg13
I358
sg66
F71.0
sbag2724
ag0
(g46
g2
Ntp2738
Rp2739
(dp2740
g12
I0
sg50
I0
sg14
I00
sg15
g51
sg52
I0
sg53
S'COF'
p2741
sg55
g56
sg19
g0
(g20
g2
Ntp2742
Rp2743
(dp2744
g24
S'COF'
p2745
sg26
I225169253
sg27
S'100'
p2746
sg28
S'COF'
p2747
sg30
S'OPT'
p2748
sg32
I00
sg33
Nsg35
g78
sg36
S'20160429'
p2749
sg37
S'USD'
p2750
sg39
S'COF   160429P00072500'
p2751
sg41
S'SMART'
p2752
sg43
F72.5
sbsg57
g2749
sg58
I0
sg59
g10
sg60
I0
sg61
I0
sg62
I0
sg63
I0
sg64
I01
sg65
I0
sg13
I360
sg66
F72.5
sbag2739
ag0
(g46
g2
Ntp2753
Rp2754
(dp2755
g12
I0
sg50
I0
sg14
I00
sg15
g51
sg52
I0
sg53
S'COF'
p2756
sg55
g56
sg19
g0
(g20
g2
Ntp2757
Rp2758
(dp2759
g24
S'COF'
p2760
sg26
I225169258
sg27
S'100'
p2761
sg28
S'COF'
p2762
sg30
S'OPT'
p2763
sg32
I00
sg33
Nsg35
g78
sg36
S'20160429'
p2764
sg37
S'USD'
p2765
sg39
S'COF   160429P00072000'
p2766
sg41
S'SMART'
p2767
sg43
F72.0
sbsg57
g2764
sg58
I0
sg59
g10
sg60
I0
sg61
I0
sg62
I0
sg63
I0
sg64
I01
sg65
I0
sg13
I362
sg66
F72.0
sbag2754
ag0
(g46
g2
Ntp2768
Rp2769
(dp2770
g12
I0
sg50
I0
sg14
I00
sg15
g51
sg52
I0
sg53
S'COF'
p2771
sg55
g56
sg19
g0
(g20
g2
Ntp2772
Rp2773
(dp2774
g24
S'COF'
p2775
sg26
I225169263
sg27
S'100'
p2776
sg28
S'COF'
p2777
sg30
S'OPT'
p2778
sg32
I00
sg33
Nsg35
g78
sg36
S'20160429'
p2779
sg37
S'USD'
p2780
sg39
S'COF   160429P00073500'
p2781
sg41
S'SMART'
p2782
sg43
F73.5
sbsg57
g2779
sg58
I0
sg59
g10
sg60
I0
sg61
I0
sg62
I0
sg63
I0
sg64
I01
sg65
I0
sg13
I364
sg66
F73.5
sbag2769
ag0
(g46
g2
Ntp2783
Rp2784
(dp2785
g12
I0
sg50
I0
sg14
I00
sg15
g51
sg52
I0
sg53
S'COF'
p2786
sg55
g56
sg19
g0
(g20
g2
Ntp2787
Rp2788
(dp2789
g24
S'COF'
p2790
sg26
I225169265
sg27
S'100'
p2791
sg28
S'COF'
p2792
sg30
S'OPT'
p2793
sg32
I00
sg33
Nsg35
g78
sg36
S'20160429'
p2794
sg37
S'USD'
p2795
sg39
S'COF   160429P00073000'
p2796
sg41
S'SMART'
p2797
sg43
F73.0
sbsg57
g2794
sg58
I0
sg59
g10
sg60
I0
sg61
I0
sg62
I0
sg63
I0
sg64
I01
sg65
I0
sg13
I366
sg66
F73.0
sbag2784
ag0
(g46
g2
Ntp2798
Rp2799
(dp2800
g12
I0
sg50
I0
sg14
I00
sg15
g51
sg52
I0
sg53
S'COF'
p2801
sg55
g56
sg19
g0
(g20
g2
Ntp2802
Rp2803
(dp2804
g24
S'COF'
p2805
sg26
I225169268
sg27
S'100'
p2806
sg28
S'COF'
p2807
sg30
S'OPT'
p2808
sg32
I00
sg33
Nsg35
g78
sg36
S'20160429'
p2809
sg37
S'USD'
p2810
sg39
S'COF   160429P00074500'
p2811
sg41
S'SMART'
p2812
sg43
F74.5
sbsg57
g2809
sg58
I0
sg59
g10
sg60
I0
sg61
I0
sg62
I0
sg63
I0
sg64
I01
sg65
I0
sg13
I368
sg66
F74.5
sbag2799
ag0
(g46
g2
Ntp2813
Rp2814
(dp2815
g12
I0
sg50
I0
sg14
I00
sg15
g51
sg52
I0
sg53
S'COF'
p2816
sg55
g56
sg19
g0
(g20
g2
Ntp2817
Rp2818
(dp2819
g24
S'COF'
p2820
sg26
I225169275
sg27
S'100'
p2821
sg28
S'COF'
p2822
sg30
S'OPT'
p2823
sg32
I00
sg33
Nsg35
g78
sg36
S'20160429'
p2824
sg37
S'USD'
p2825
sg39
S'COF   160429P00074000'
p2826
sg41
S'SMART'
p2827
sg43
F74.0
sbsg57
g2824
sg58
I0
sg59
g10
sg60
I0
sg61
I0
sg62
I0
sg63
I0
sg64
I01
sg65
I0
sg13
I370
sg66
F74.0
sbag2814
ag0
(g46
g2
Ntp2828
Rp2829
(dp2830
g12
I0
sg50
I0
sg14
I00
sg15
g51
sg52
I0
sg53
S'COF'
p2831
sg55
g56
sg19
g0
(g20
g2
Ntp2832
Rp2833
(dp2834
g24
S'COF'
p2835
sg26
I225169278
sg27
S'100'
p2836
sg28
S'COF'
p2837
sg30
S'OPT'
p2838
sg32
I00
sg33
Nsg35
g78
sg36
S'20160429'
p2839
sg37
S'USD'
p2840
sg39
S'COF   160429P00075500'
p2841
sg41
S'SMART'
p2842
sg43
F75.5
sbsg57
g2839
sg58
I0
sg59
g10
sg60
I0
sg61
I0
sg62
I0
sg63
I0
sg64
I01
sg65
I0
sg13
I372
sg66
F75.5
sbag2829
ag0
(g46
g2
Ntp2843
Rp2844
(dp2845
g12
I0
sg50
I0
sg14
I00
sg15
g51
sg52
I0
sg53
S'COF'
p2846
sg55
g56
sg19
g0
(g20
g2
Ntp2847
Rp2848
(dp2849
g24
S'COF'
p2850
sg26
I225169281
sg27
S'100'
p2851
sg28
S'COF'
p2852
sg30
S'OPT'
p2853
sg32
I00
sg33
Nsg35
g78
sg36
S'20160429'
p2854
sg37
S'USD'
p2855
sg39
S'COF   160429P00075000'
p2856
sg41
S'SMART'
p2857
sg43
F75.0
sbsg57
g2854
sg58
I0
sg59
g10
sg60
I0
sg61
I0
sg62
I0
sg63
I0
sg64
I01
sg65
I0
sg13
I374
sg66
F75.0
sbag2844
ag0
(g46
g2
Ntp2858
Rp2859
(dp2860
g12
I0
sg50
I0
sg14
I00
sg15
g51
sg52
I0
sg53
S'COF'
p2861
sg55
g56
sg19
g0
(g20
g2
Ntp2862
Rp2863
(dp2864
g24
S'COF'
p2865
sg26
I225169284
sg27
S'100'
p2866
sg28
S'COF'
p2867
sg30
S'OPT'
p2868
sg32
I00
sg33
Nsg35
g78
sg36
S'20160429'
p2869
sg37
S'USD'
p2870
sg39
S'COF   160429P00076000'
p2871
sg41
S'SMART'
p2872
sg43
F76.0
sbsg57
g2869
sg58
I0
sg59
g10
sg60
I0
sg61
I0
sg62
I0
sg63
I0
sg64
I01
sg65
I0
sg13
I376
sg66
F76.0
sbag2859
ag0
(g46
g2
Ntp2873
Rp2874
(dp2875
g12
I0
sg50
I0
sg14
I00
sg15
g51
sg52
I0
sg53
S'COF'
p2876
sg55
g56
sg19
g0
(g20
g2
Ntp2877
Rp2878
(dp2879
g24
S'COF'
p2880
sg26
I225169291
sg27
S'100'
p2881
sg28
S'COF'
p2882
sg30
S'OPT'
p2883
sg32
I00
sg33
Nsg35
g78
sg36
S'20160429'
p2884
sg37
S'USD'
p2885
sg39
S'COF   160429P00077000'
p2886
sg41
S'SMART'
p2887
sg43
F77.0
sbsg57
g2884
sg58
I0
sg59
g10
sg60
I0
sg61
I0
sg62
I0
sg63
I0
sg64
I01
sg65
I0
sg13
I378
sg66
F77.0
sbag2874
ag0
(g46
g2
Ntp2888
Rp2889
(dp2890
g12
I0
sg50
I0
sg14
I00
sg15
g51
sg52
I0
sg53
S'COF'
p2891
sg55
g56
sg19
g0
(g20
g2
Ntp2892
Rp2893
(dp2894
g24
S'COF'
p2895
sg26
I225169294
sg27
S'100'
p2896
sg28
S'COF'
p2897
sg30
S'OPT'
p2898
sg32
I00
sg33
Nsg35
g78
sg36
S'20160429'
p2899
sg37
S'USD'
p2900
sg39
S'COF   160429P00078000'
p2901
sg41
S'SMART'
p2902
sg43
F78.0
sbsg57
g2899
sg58
I0
sg59
g10
sg60
I0
sg61
I0
sg62
I0
sg63
I0
sg64
I01
sg65
I0
sg13
I380
sg66
F78.0
sbag2889
ag0
(g46
g2
Ntp2903
Rp2904
(dp2905
g12
I0
sg50
I0
sg14
I00
sg15
g51
sg52
I0
sg53
S'COF'
p2906
sg55
g56
sg19
g0
(g20
g2
Ntp2907
Rp2908
(dp2909
g24
S'COF'
p2910
sg26
I225169296
sg27
S'100'
p2911
sg28
S'COF'
p2912
sg30
S'OPT'
p2913
sg32
I00
sg33
Nsg35
g78
sg36
S'20160429'
p2914
sg37
S'USD'
p2915
sg39
S'COF   160429P00079000'
p2916
sg41
S'SMART'
p2917
sg43
F79.0
sbsg57
g2914
sg58
I0
sg59
g10
sg60
I0
sg61
I0
sg62
I0
sg63
I0
sg64
I01
sg65
I0
sg13
I382
sg66
F79.0
sbag2904
ag0
(g46
g2
Ntp2918
Rp2919
(dp2920
g12
I0
sg50
I0
sg14
I00
sg15
g51
sg52
I0
sg53
S'COF'
p2921
sg55
g56
sg19
g0
(g20
g2
Ntp2922
Rp2923
(dp2924
g24
S'COF'
p2925
sg26
I225500536
sg27
S'100'
p2926
sg28
S'COF'
p2927
sg30
S'OPT'
p2928
sg32
I00
sg33
Nsg35
g78
sg36
S'20160429'
p2929
sg37
S'USD'
p2930
sg39
S'COF   160429P00045000'
p2931
sg41
S'SMART'
p2932
sg43
F45.0
sbsg57
g2929
sg58
I0
sg59
g10
sg60
I0
sg61
I0
sg62
I0
sg63
I0
sg64
I01
sg65
I0
sg13
I384
sg66
F45.0
sbag2919
ag0
(g46
g2
Ntp2933
Rp2934
(dp2935
g12
I0
sg50
I0
sg14
I00
sg15
g51
sg52
I0
sg53
S'COF'
p2936
sg55
g56
sg19
g0
(g20
g2
Ntp2937
Rp2938
(dp2939
g24
S'COF'
p2940
sg26
I225500541
sg27
S'100'
p2941
sg28
S'COF'
p2942
sg30
S'OPT'
p2943
sg32
I00
sg33
Nsg35
g78
sg36
S'20160429'
p2944
sg37
S'USD'
p2945
sg39
S'COF   160429P00050000'
p2946
sg41
S'SMART'
p2947
sg43
F50.0
sbsg57
g2944
sg58
I0
sg59
g10
sg60
I0
sg61
I0
sg62
I0
sg63
I0
sg64
I01
sg65
I0
sg13
I386
sg66
F50.0
sbag2934
ag0
(g46
g2
Ntp2948
Rp2949
(dp2950
g12
I0
sg50
I0
sg14
I00
sg15
g51
sg52
I0
sg53
S'COF'
p2951
sg55
g56
sg19
g0
(g20
g2
Ntp2952
Rp2953
(dp2954
g24
S'COF'
p2955
sg26
I225500546
sg27
S'100'
p2956
sg28
S'COF'
p2957
sg30
S'OPT'
p2958
sg32
I00
sg33
Nsg35
g78
sg36
S'20160429'
p2959
sg37
S'USD'
p2960
sg39
S'COF   160429P00055000'
p2961
sg41
S'SMART'
p2962
sg43
F55.0
sbsg57
g2959
sg58
I0
sg59
g10
sg60
I0
sg61
I0
sg62
I0
sg63
I0
sg64
I01
sg65
I0
sg13
I388
sg66
F55.0
sbag2949
ag0
(g46
g2
Ntp2963
Rp2964
(dp2965
g12
I0
sg50
I0
sg14
I00
sg15
g51
sg52
I0
sg53
S'COF'
p2966
sg55
g56
sg19
g0
(g20
g2
Ntp2967
Rp2968
(dp2969
g24
S'COF'
p2970
sg26
I225500551
sg27
S'100'
p2971
sg28
S'COF'
p2972
sg30
S'OPT'
p2973
sg32
I00
sg33
Nsg35
g78
sg36
S'20160429'
p2974
sg37
S'USD'
p2975
sg39
S'COF   160429P00080000'
p2976
sg41
S'SMART'
p2977
sg43
F80.0
sbsg57
g2974
sg58
I0
sg59
g10
sg60
I0
sg61
I0
sg62
I0
sg63
I0
sg64
I01
sg65
I0
sg13
I390
sg66
F80.0
sbag2964
ag0
(g46
g2
Ntp2978
Rp2979
(dp2980
g12
I0
sg50
I0
sg14
I00
sg15
g51
sg52
I0
sg53
S'COF'
p2981
sg55
g56
sg19
g0
(g20
g2
Ntp2982
Rp2983
(dp2984
g24
S'COF'
p2985
sg26
I226105035
sg27
S'100'
p2986
sg28
S'COF'
p2987
sg30
S'OPT'
p2988
sg32
I00
sg33
Nsg35
g78
sg36
S'20160520'
p2989
sg37
S'USD'
p2990
sg39
S'COF   160520P00100000'
p2991
sg41
S'SMART'
p2992
sg43
F100.0
sbsg57
g2989
sg58
I0
sg59
g10
sg60
I0
sg61
I0
sg62
I0
sg63
I0
sg64
I01
sg65
I0
sg13
I392
sg66
F100.0
sbag2979
ag0
(g46
g2
Ntp2993
Rp2994
(dp2995
g12
I0
sg50
I0
sg14
I00
sg15
g51
sg52
I0
sg53
S'COF'
p2996
sg55
g56
sg19
g0
(g20
g2
Ntp2997
Rp2998
(dp2999
g24
S'COF'
p3000
sg26
I226105038
sg27
S'100'
p3001
sg28
S'COF'
p3002
sg30
S'OPT'
p3003
sg32
I00
sg33
Nsg35
g78
sg36
S'20160520'
p3004
sg37
S'USD'
p3005
sg39
S'COF   160520P00035000'
p3006
sg41
S'SMART'
p3007
sg43
F35.0
sbsg57
g3004
sg58
I0
sg59
g10
sg60
I0
sg61
I0
sg62
I0
sg63
I0
sg64
I01
sg65
I0
sg13
I394
sg66
F35.0
sbag2994
ag0
(g46
g2
Ntp3008
Rp3009
(dp3010
g12
I0
sg50
I0
sg14
I00
sg15
g51
sg52
I0
sg53
S'COF'
p3011
sg55
g56
sg19
g0
(g20
g2
Ntp3012
Rp3013
(dp3014
g24
S'COF'
p3015
sg26
I226105040
sg27
S'100'
p3016
sg28
S'COF'
p3017
sg30
S'OPT'
p3018
sg32
I00
sg33
Nsg35
g78
sg36
S'20160520'
p3019
sg37
S'USD'
p3020
sg39
S'COF   160520P00037500'
p3021
sg41
S'SMART'
p3022
sg43
F37.5
sbsg57
g3019
sg58
I0
sg59
g10
sg60
I0
sg61
I0
sg62
I0
sg63
I0
sg64
I01
sg65
I0
sg13
I396
sg66
F37.5
sbag3009
ag0
(g46
g2
Ntp3023
Rp3024
(dp3025
g12
I0
sg50
I0
sg14
I00
sg15
g51
sg52
I0
sg53
S'COF'
p3026
sg55
g56
sg19
g0
(g20
g2
Ntp3027
Rp3028
(dp3029
g24
S'COF'
p3030
sg26
I226105045
sg27
S'100'
p3031
sg28
S'COF'
p3032
sg30
S'OPT'
p3033
sg32
I00
sg33
Nsg35
g78
sg36
S'20160520'
p3034
sg37
S'USD'
p3035
sg39
S'COF   160520P00040000'
p3036
sg41
S'SMART'
p3037
sg43
F40.0
sbsg57
g3034
sg58
I0
sg59
g10
sg60
I0
sg61
I0
sg62
I0
sg63
I0
sg64
I01
sg65
I0
sg13
I398
sg66
F40.0
sbag3024
ag0
(g46
g2
Ntp3038
Rp3039
(dp3040
g12
I0
sg50
I0
sg14
I00
sg15
g51
sg52
I0
sg53
S'COF'
p3041
sg55
g56
sg19
g0
(g20
g2
Ntp3042
Rp3043
(dp3044
g24
S'COF'
p3045
sg26
I226105050
sg27
S'100'
p3046
sg28
S'COF'
p3047
sg30
S'OPT'
p3048
sg32
I00
sg33
Nsg35
g78
sg36
S'20160520'
p3049
sg37
S'USD'
p3050
sg39
S'COF   160520P00042500'
p3051
sg41
S'SMART'
p3052
sg43
F42.5
sbsg57
g3049
sg58
I0
sg59
g10
sg60
I0
sg61
I0
sg62
I0
sg63
I0
sg64
I01
sg65
I0
sg13
I400
sg66
F42.5
sbag3039
ag0
(g46
g2
Ntp3053
Rp3054
(dp3055
g12
I0
sg50
I0
sg14
I00
sg15
g51
sg52
I0
sg53
S'COF'
p3056
sg55
g56
sg19
g0
(g20
g2
Ntp3057
Rp3058
(dp3059
g24
S'COF'
p3060
sg26
I226105055
sg27
S'100'
p3061
sg28
S'COF'
p3062
sg30
S'OPT'
p3063
sg32
I00
sg33
Nsg35
g78
sg36
S'20160520'
p3064
sg37
S'USD'
p3065
sg39
S'COF   160520P00045000'
p3066
sg41
S'SMART'
p3067
sg43
F45.0
sbsg57
g3064
sg58
I0
sg59
g10
sg60
I0
sg61
I0
sg62
I0
sg63
I0
sg64
I01
sg65
I0
sg13
I402
sg66
F45.0
sbag3054
ag0
(g46
g2
Ntp3068
Rp3069
(dp3070
g12
I0
sg50
I0
sg14
I00
sg15
g51
sg52
I0
sg53
S'COF'
p3071
sg55
g56
sg19
g0
(g20
g2
Ntp3072
Rp3073
(dp3074
g24
S'COF'
p3075
sg26
I226105059
sg27
S'100'
p3076
sg28
S'COF'
p3077
sg30
S'OPT'
p3078
sg32
I00
sg33
Nsg35
g78
sg36
S'20160520'
p3079
sg37
S'USD'
p3080
sg39
S'COF   160520P00050000'
p3081
sg41
S'SMART'
p3082
sg43
F50.0
sbsg57
g3079
sg58
I0
sg59
g10
sg60
I0
sg61
I0
sg62
I0
sg63
I0
sg64
I01
sg65
I0
sg13
I404
sg66
F50.0
sbag3069
ag0
(g46
g2
Ntp3083
Rp3084
(dp3085
g12
I0
sg50
I0
sg14
I00
sg15
g51
sg52
I0
sg53
S'COF'
p3086
sg55
g56
sg19
g0
(g20
g2
Ntp3087
Rp3088
(dp3089
g24
S'COF'
p3090
sg26
I226105062
sg27
S'100'
p3091
sg28
S'COF'
p3092
sg30
S'OPT'
p3093
sg32
I00
sg33
Nsg35
g78
sg36
S'20160520'
p3094
sg37
S'USD'
p3095
sg39
S'COF   160520P00055000'
p3096
sg41
S'SMART'
p3097
sg43
F55.0
sbsg57
g3094
sg58
I0
sg59
g10
sg60
I0
sg61
I0
sg62
I0
sg63
I0
sg64
I01
sg65
I0
sg13
I406
sg66
F55.0
sbag3084
ag0
(g46
g2
Ntp3098
Rp3099
(dp3100
g12
I0
sg50
I0
sg14
I00
sg15
g51
sg52
I0
sg53
S'COF'
p3101
sg55
g56
sg19
g0
(g20
g2
Ntp3102
Rp3103
(dp3104
g24
S'COF'
p3105
sg26
I226105065
sg27
S'100'
p3106
sg28
S'COF'
p3107
sg30
S'OPT'
p3108
sg32
I00
sg33
Nsg35
g78
sg36
S'20160520'
p3109
sg37
S'USD'
p3110
sg39
S'COF   160520P00060000'
p3111
sg41
S'SMART'
p3112
sg43
F60.0
sbsg57
g3109
sg58
I0
sg59
g10
sg60
I0
sg61
I0
sg62
I0
sg63
I0
sg64
I01
sg65
I0
sg13
I408
sg66
F60.0
sbag3099
ag0
(g46
g2
Ntp3113
Rp3114
(dp3115
g12
I0
sg50
I0
sg14
I00
sg15
g51
sg52
I0
sg53
S'COF'
p3116
sg55
g56
sg19
g0
(g20
g2
Ntp3117
Rp3118
(dp3119
g24
S'COF'
p3120
sg26
I226105068
sg27
S'100'
p3121
sg28
S'COF'
p3122
sg30
S'OPT'
p3123
sg32
I00
sg33
Nsg35
g78
sg36
S'20160520'
p3124
sg37
S'USD'
p3125
sg39
S'COF   160520P00062500'
p3126
sg41
S'SMART'
p3127
sg43
F62.5
sbsg57
g3124
sg58
I0
sg59
g10
sg60
I0
sg61
I0
sg62
I0
sg63
I0
sg64
I01
sg65
I0
sg13
I410
sg66
F62.5
sbag3114
ag0
(g46
g2
Ntp3128
Rp3129
(dp3130
g12
I0
sg50
I0
sg14
I00
sg15
g51
sg52
I0
sg53
S'COF'
p3131
sg55
g56
sg19
g0
(g20
g2
Ntp3132
Rp3133
(dp3134
g24
S'COF'
p3135
sg26
I226105074
sg27
S'100'
p3136
sg28
S'COF'
p3137
sg30
S'OPT'
p3138
sg32
I00
sg33
Nsg35
g78
sg36
S'20160520'
p3139
sg37
S'USD'
p3140
sg39
S'COF   160520P00065000'
p3141
sg41
S'SMART'
p3142
sg43
F65.0
sbsg57
g3139
sg58
I0
sg59
g10
sg60
I0
sg61
I0
sg62
I0
sg63
I0
sg64
I01
sg65
I0
sg13
I412
sg66
F65.0
sbag3129
ag0
(g46
g2
Ntp3143
Rp3144
(dp3145
g12
I0
sg50
I0
sg14
I00
sg15
g51
sg52
I0
sg53
S'COF'
p3146
sg55
g56
sg19
g0
(g20
g2
Ntp3147
Rp3148
(dp3149
g24
S'COF'
p3150
sg26
I226105079
sg27
S'100'
p3151
sg28
S'COF'
p3152
sg30
S'OPT'
p3153
sg32
I00
sg33
Nsg35
g78
sg36
S'20160520'
p3154
sg37
S'USD'
p3155
sg39
S'COF   160520P00067500'
p3156
sg41
S'SMART'
p3157
sg43
F67.5
sbsg57
g3154
sg58
I0
sg59
g10
sg60
I0
sg61
I0
sg62
I0
sg63
I0
sg64
I01
sg65
I0
sg13
I414
sg66
F67.5
sbag3144
ag0
(g46
g2
Ntp3158
Rp3159
(dp3160
g12
I0
sg50
I0
sg14
I00
sg15
g51
sg52
I0
sg53
S'COF'
p3161
sg55
g56
sg19
g0
(g20
g2
Ntp3162
Rp3163
(dp3164
g24
S'COF'
p3165
sg26
I226105080
sg27
S'100'
p3166
sg28
S'COF'
p3167
sg30
S'OPT'
p3168
sg32
I00
sg33
Nsg35
g78
sg36
S'20160520'
p3169
sg37
S'USD'
p3170
sg39
S'COF   160520P00070000'
p3171
sg41
S'SMART'
p3172
sg43
F70.0
sbsg57
g3169
sg58
I0
sg59
g10
sg60
I0
sg61
I0
sg62
I0
sg63
I0
sg64
I01
sg65
I0
sg13
I416
sg66
F70.0
sbag3159
ag0
(g46
g2
Ntp3173
Rp3174
(dp3175
g12
I0
sg50
I0
sg14
I00
sg15
g51
sg52
I0
sg53
S'COF'
p3176
sg55
g56
sg19
g0
(g20
g2
Ntp3177
Rp3178
(dp3179
g24
S'COF'
p3180
sg26
I226105085
sg27
S'100'
p3181
sg28
S'COF'
p3182
sg30
S'OPT'
p3183
sg32
I00
sg33
Nsg35
g78
sg36
S'20160520'
p3184
sg37
S'USD'
p3185
sg39
S'COF   160520P00072500'
p3186
sg41
S'SMART'
p3187
sg43
F72.5
sbsg57
g3184
sg58
I0
sg59
g10
sg60
I0
sg61
I0
sg62
I0
sg63
I0
sg64
I01
sg65
I0
sg13
I418
sg66
F72.5
sbag3174
ag0
(g46
g2
Ntp3188
Rp3189
(dp3190
g12
I0
sg50
I0
sg14
I00
sg15
g51
sg52
I0
sg53
S'COF'
p3191
sg55
g56
sg19
g0
(g20
g2
Ntp3192
Rp3193
(dp3194
g24
S'COF'
p3195
sg26
I226105091
sg27
S'100'
p3196
sg28
S'COF'
p3197
sg30
S'OPT'
p3198
sg32
I00
sg33
Nsg35
g78
sg36
S'20160520'
p3199
sg37
S'USD'
p3200
sg39
S'COF   160520P00075000'
p3201
sg41
S'SMART'
p3202
sg43
F75.0
sbsg57
g3199
sg58
I0
sg59
g10
sg60
I0
sg61
I0
sg62
I0
sg63
I0
sg64
I01
sg65
I0
sg13
I420
sg66
F75.0
sbag3189
ag0
(g46
g2
Ntp3203
Rp3204
(dp3205
g12
I0
sg50
I0
sg14
I00
sg15
g51
sg52
I0
sg53
S'COF'
p3206
sg55
g56
sg19
g0
(g20
g2
Ntp3207
Rp3208
(dp3209
g24
S'COF'
p3210
sg26
I226105094
sg27
S'100'
p3211
sg28
S'COF'
p3212
sg30
S'OPT'
p3213
sg32
I00
sg33
Nsg35
g78
sg36
S'20160520'
p3214
sg37
S'USD'
p3215
sg39
S'COF   160520P00077500'
p3216
sg41
S'SMART'
p3217
sg43
F77.5
sbsg57
g3214
sg58
I0
sg59
g10
sg60
I0
sg61
I0
sg62
I0
sg63
I0
sg64
I01
sg65
I0
sg13
I422
sg66
F77.5
sbag3204
ag0
(g46
g2
Ntp3218
Rp3219
(dp3220
g12
I0
sg50
I0
sg14
I00
sg15
g51
sg52
I0
sg53
S'COF'
p3221
sg55
g56
sg19
g0
(g20
g2
Ntp3222
Rp3223
(dp3224
g24
S'COF'
p3225
sg26
I226105097
sg27
S'100'
p3226
sg28
S'COF'
p3227
sg30
S'OPT'
p3228
sg32
I00
sg33
Nsg35
g78
sg36
S'20160520'
p3229
sg37
S'USD'
p3230
sg39
S'COF   160520P00080000'
p3231
sg41
S'SMART'
p3232
sg43
F80.0
sbsg57
g3229
sg58
I0
sg59
g10
sg60
I0
sg61
I0
sg62
I0
sg63
I0
sg64
I01
sg65
I0
sg13
I424
sg66
F80.0
sbag3219
ag0
(g46
g2
Ntp3233
Rp3234
(dp3235
g12
I0
sg50
I0
sg14
I00
sg15
g51
sg52
I0
sg53
S'COF'
p3236
sg55
g56
sg19
g0
(g20
g2
Ntp3237
Rp3238
(dp3239
g24
S'COF'
p3240
sg26
I226105100
sg27
S'100'
p3241
sg28
S'COF'
p3242
sg30
S'OPT'
p3243
sg32
I00
sg33
Nsg35
g78
sg36
S'20160520'
p3244
sg37
S'USD'
p3245
sg39
S'COF   160520P00085000'
p3246
sg41
S'SMART'
p3247
sg43
F85.0
sbsg57
g3244
sg58
I0
sg59
g10
sg60
I0
sg61
I0
sg62
I0
sg63
I0
sg64
I01
sg65
I0
sg13
I426
sg66
F85.0
sbag3234
ag0
(g46
g2
Ntp3248
Rp3249
(dp3250
g12
I0
sg50
I0
sg14
I00
sg15
g51
sg52
I0
sg53
S'COF'
p3251
sg55
g56
sg19
g0
(g20
g2
Ntp3252
Rp3253
(dp3254
g24
S'COF'
p3255
sg26
I226105106
sg27
S'100'
p3256
sg28
S'COF'
p3257
sg30
S'OPT'
p3258
sg32
I00
sg33
Nsg35
g78
sg36
S'20160520'
p3259
sg37
S'USD'
p3260
sg39
S'COF   160520P00090000'
p3261
sg41
S'SMART'
p3262
sg43
F90.0
sbsg57
g3259
sg58
I0
sg59
g10
sg60
I0
sg61
I0
sg62
I0
sg63
I0
sg64
I01
sg65
I0
sg13
I428
sg66
F90.0
sbag3249
ag0
(g46
g2
Ntp3263
Rp3264
(dp3265
g12
I0
sg50
I0
sg14
I00
sg15
g51
sg52
I0
sg53
S'COF'
p3266
sg55
g56
sg19
g0
(g20
g2
Ntp3267
Rp3268
(dp3269
g24
S'COF'
p3270
sg26
I226105111
sg27
S'100'
p3271
sg28
S'COF'
p3272
sg30
S'OPT'
p3273
sg32
I00
sg33
Nsg35
g78
sg36
S'20160520'
p3274
sg37
S'USD'
p3275
sg39
S'COF   160520P00095000'
p3276
sg41
S'SMART'
p3277
sg43
F95.0
sbsg57
g3274
sg58
I0
sg59
g10
sg60
I0
sg61
I0
sg62
I0
sg63
I0
sg64
I01
sg65
I0
sg13
I430
sg66
F95.0
sbag3264
ag0
(g46
g2
Ntp3278
Rp3279
(dp3280
g12
I0
sg50
I0
sg14
I00
sg15
g51
sg52
I0
sg53
S'COF'
p3281
sg55
g56
sg19
g0
(g20
g2
Ntp3282
Rp3283
(dp3284
g24
S'COF'
p3285
sg26
I226811108
sg27
S'100'
p3286
sg28
S'COF'
p3287
sg30
S'OPT'
p3288
sg32
I00
sg33
Nsg35
g78
sg36
S'20160520'
p3289
sg37
S'USD'
p3290
sg39
S'COF   160520P00047500'
p3291
sg41
S'SMART'
p3292
sg43
F47.5
sbsg57
g3289
sg58
I0
sg59
g10
sg60
I0
sg61
I0
sg62
I0
sg63
I0
sg64
I01
sg65
I0
sg13
I432
sg66
F47.5
sbag3279
ag0
(g46
g2
Ntp3293
Rp3294
(dp3295
g12
I0
sg50
I0
sg14
I00
sg15
g51
sg52
I0
sg53
S'COF'
p3296
sg55
g56
sg19
g0
(g20
g2
Ntp3297
Rp3298
(dp3299
g24
S'COF'
p3300
sg26
I227413284
sg27
S'100'
p3301
sg28
S'COF'
p3302
sg30
S'OPT'
p3303
sg32
I00
sg33
Nsg35
g78
sg36
S'20160506'
p3304
sg37
S'USD'
p3305
sg39
S'COF   160506P00061000'
p3306
sg41
S'SMART'
p3307
sg43
F61.0
sbsg57
g3304
sg58
I0
sg59
g10
sg60
I0
sg61
I0
sg62
I0
sg63
I0
sg64
I01
sg65
I0
sg13
I434
sg66
F61.0
sbag3294
ag0
(g46
g2
Ntp3308
Rp3309
(dp3310
g12
I0
sg50
I0
sg14
I00
sg15
g51
sg52
I0
sg53
S'COF'
p3311
sg55
g56
sg19
g0
(g20
g2
Ntp3312
Rp3313
(dp3314
g24
S'COF'
p3315
sg26
I227413291
sg27
S'100'
p3316
sg28
S'COF'
p3317
sg30
S'OPT'
p3318
sg32
I00
sg33
Nsg35
g78
sg36
S'20160506'
p3319
sg37
S'USD'
p3320
sg39
S'COF   160506P00062000'
p3321
sg41
S'SMART'
p3322
sg43
F62.0
sbsg57
g3319
sg58
I0
sg59
g10
sg60
I0
sg61
I0
sg62
I0
sg63
I0
sg64
I01
sg65
I0
sg13
I436
sg66
F62.0
sbag3309
ag0
(g46
g2
Ntp3323
Rp3324
(dp3325
g12
I0
sg50
I0
sg14
I00
sg15
g51
sg52
I0
sg53
S'COF'
p3326
sg55
g56
sg19
g0
(g20
g2
Ntp3327
Rp3328
(dp3329
g24
S'COF'
p3330
sg26
I227413294
sg27
S'100'
p3331
sg28
S'COF'
p3332
sg30
S'OPT'
p3333
sg32
I00
sg33
Nsg35
g78
sg36
S'20160506'
p3334
sg37
S'USD'
p3335
sg39
S'COF   160506P00063500'
p3336
sg41
S'SMART'
p3337
sg43
F63.5
sbsg57
g3334
sg58
I0
sg59
g10
sg60
I0
sg61
I0
sg62
I0
sg63
I0
sg64
I01
sg65
I0
sg13
I438
sg66
F63.5
sbag3324
ag0
(g46
g2
Ntp3338
Rp3339
(dp3340
g12
I0
sg50
I0
sg14
I00
sg15
g51
sg52
I0
sg53
S'COF'
p3341
sg55
g56
sg19
g0
(g20
g2
Ntp3342
Rp3343
(dp3344
g24
S'COF'
p3345
sg26
I227413296
sg27
S'100'
p3346
sg28
S'COF'
p3347
sg30
S'OPT'
p3348
sg32
I00
sg33
Nsg35
g78
sg36
S'20160506'
p3349
sg37
S'USD'
p3350
sg39
S'COF   160506P00063000'
p3351
sg41
S'SMART'
p3352
sg43
F63.0
sbsg57
g3349
sg58
I0
sg59
g10
sg60
I0
sg61
I0
sg62
I0
sg63
I0
sg64
I01
sg65
I0
sg13
I440
sg66
F63.0
sbag3339
ag0
(g46
g2
Ntp3353
Rp3354
(dp3355
g12
I0
sg50
I0
sg14
I00
sg15
g51
sg52
I0
sg53
S'COF'
p3356
sg55
g56
sg19
g0
(g20
g2
Ntp3357
Rp3358
(dp3359
g24
S'COF'
p3360
sg26
I227413301
sg27
S'100'
p3361
sg28
S'COF'
p3362
sg30
S'OPT'
p3363
sg32
I00
sg33
Nsg35
g78
sg36
S'20160506'
p3364
sg37
S'USD'
p3365
sg39
S'COF   160506P00064500'
p3366
sg41
S'SMART'
p3367
sg43
F64.5
sbsg57
g3364
sg58
I0
sg59
g10
sg60
I0
sg61
I0
sg62
I0
sg63
I0
sg64
I01
sg65
I0
sg13
I442
sg66
F64.5
sbag3354
ag0
(g46
g2
Ntp3368
Rp3369
(dp3370
g12
I0
sg50
I0
sg14
I00
sg15
g51
sg52
I0
sg53
S'COF'
p3371
sg55
g56
sg19
g0
(g20
g2
Ntp3372
Rp3373
(dp3374
g24
S'COF'
p3375
sg26
I227413306
sg27
S'100'
p3376
sg28
S'COF'
p3377
sg30
S'OPT'
p3378
sg32
I00
sg33
Nsg35
g78
sg36
S'20160506'
p3379
sg37
S'USD'
p3380
sg39
S'COF   160506P00064000'
p3381
sg41
S'SMART'
p3382
sg43
F64.0
sbsg57
g3379
sg58
I0
sg59
g10
sg60
I0
sg61
I0
sg62
I0
sg63
I0
sg64
I01
sg65
I0
sg13
I444
sg66
F64.0
sbag3369
ag0
(g46
g2
Ntp3383
Rp3384
(dp3385
g12
I0
sg50
I0
sg14
I00
sg15
g51
sg52
I0
sg53
S'COF'
p3386
sg55
g56
sg19
g0
(g20
g2
Ntp3387
Rp3388
(dp3389
g24
S'COF'
p3390
sg26
I227413311
sg27
S'100'
p3391
sg28
S'COF'
p3392
sg30
S'OPT'
p3393
sg32
I00
sg33
Nsg35
g78
sg36
S'20160506'
p3394
sg37
S'USD'
p3395
sg39
S'COF   160506P00065500'
p3396
sg41
S'SMART'
p3397
sg43
F65.5
sbsg57
g3394
sg58
I0
sg59
g10
sg60
I0
sg61
I0
sg62
I0
sg63
I0
sg64
I01
sg65
I0
sg13
I446
sg66
F65.5
sbag3384
ag0
(g46
g2
Ntp3398
Rp3399
(dp3400
g12
I0
sg50
I0
sg14
I00
sg15
g51
sg52
I0
sg53
S'COF'
p3401
sg55
g56
sg19
g0
(g20
g2
Ntp3402
Rp3403
(dp3404
g24
S'COF'
p3405
sg26
I227413314
sg27
S'100'
p3406
sg28
S'COF'
p3407
sg30
S'OPT'
p3408
sg32
I00
sg33
Nsg35
g78
sg36
S'20160506'
p3409
sg37
S'USD'
p3410
sg39
S'COF   160506P00065000'
p3411
sg41
S'SMART'
p3412
sg43
F65.0
sbsg57
g3409
sg58
I0
sg59
g10
sg60
I0
sg61
I0
sg62
I0
sg63
I0
sg64
I01
sg65
I0
sg13
I448
sg66
F65.0
sbag3399
ag0
(g46
g2
Ntp3413
Rp3414
(dp3415
g12
I0
sg50
I0
sg14
I00
sg15
g51
sg52
I0
sg53
S'COF'
p3416
sg55
g56
sg19
g0
(g20
g2
Ntp3417
Rp3418
(dp3419
g24
S'COF'
p3420
sg26
I227413319
sg27
S'100'
p3421
sg28
S'COF'
p3422
sg30
S'OPT'
p3423
sg32
I00
sg33
Nsg35
g78
sg36
S'20160506'
p3424
sg37
S'USD'
p3425
sg39
S'COF   160506P00066500'
p3426
sg41
S'SMART'
p3427
sg43
F66.5
sbsg57
g3424
sg58
I0
sg59
g10
sg60
I0
sg61
I0
sg62
I0
sg63
I0
sg64
I01
sg65
I0
sg13
I450
sg66
F66.5
sbag3414
ag0
(g46
g2
Ntp3428
Rp3429
(dp3430
g12
I0
sg50
I0
sg14
I00
sg15
g51
sg52
I0
sg53
S'COF'
p3431
sg55
g56
sg19
g0
(g20
g2
Ntp3432
Rp3433
(dp3434
g24
S'COF'
p3435
sg26
I227413320
sg27
S'100'
p3436
sg28
S'COF'
p3437
sg30
S'OPT'
p3438
sg32
I00
sg33
Nsg35
g78
sg36
S'20160506'
p3439
sg37
S'USD'
p3440
sg39
S'COF   160506P00066000'
p3441
sg41
S'SMART'
p3442
sg43
F66.0
sbsg57
g3439
sg58
I0
sg59
g10
sg60
I0
sg61
I0
sg62
I0
sg63
I0
sg64
I01
sg65
I0
sg13
I452
sg66
F66.0
sbag3429
ag0
(g46
g2
Ntp3443
Rp3444
(dp3445
g12
I0
sg50
I0
sg14
I00
sg15
g51
sg52
I0
sg53
S'COF'
p3446
sg55
g56
sg19
g0
(g20
g2
Ntp3447
Rp3448
(dp3449
g24
S'COF'
p3450
sg26
I227413325
sg27
S'100'
p3451
sg28
S'COF'
p3452
sg30
S'OPT'
p3453
sg32
I00
sg33
Nsg35
g78
sg36
S'20160506'
p3454
sg37
S'USD'
p3455
sg39
S'COF   160506P00067500'
p3456
sg41
S'SMART'
p3457
sg43
F67.5
sbsg57
g3454
sg58
I0
sg59
g10
sg60
I0
sg61
I0
sg62
I0
sg63
I0
sg64
I01
sg65
I0
sg13
I454
sg66
F67.5
sbag3444
ag0
(g46
g2
Ntp3458
Rp3459
(dp3460
g12
I0
sg50
I0
sg14
I00
sg15
g51
sg52
I0
sg53
S'COF'
p3461
sg55
g56
sg19
g0
(g20
g2
Ntp3462
Rp3463
(dp3464
g24
S'COF'
p3465
sg26
I227413331
sg27
S'100'
p3466
sg28
S'COF'
p3467
sg30
S'OPT'
p3468
sg32
I00
sg33
Nsg35
g78
sg36
S'20160506'
p3469
sg37
S'USD'
p3470
sg39
S'COF   160506P00067000'
p3471
sg41
S'SMART'
p3472
sg43
F67.0
sbsg57
g3469
sg58
I0
sg59
g10
sg60
I0
sg61
I0
sg62
I0
sg63
I0
sg64
I01
sg65
I0
sg13
I456
sg66
F67.0
sbag3459
ag0
(g46
g2
Ntp3473
Rp3474
(dp3475
g12
I0
sg50
I0
sg14
I00
sg15
g51
sg52
I0
sg53
S'COF'
p3476
sg55
g56
sg19
g0
(g20
g2
Ntp3477
Rp3478
(dp3479
g24
S'COF'
p3480
sg26
I227413334
sg27
S'100'
p3481
sg28
S'COF'
p3482
sg30
S'OPT'
p3483
sg32
I00
sg33
Nsg35
g78
sg36
S'20160506'
p3484
sg37
S'USD'
p3485
sg39
S'COF   160506P00068500'
p3486
sg41
S'SMART'
p3487
sg43
F68.5
sbsg57
g3484
sg58
I0
sg59
g10
sg60
I0
sg61
I0
sg62
I0
sg63
I0
sg64
I01
sg65
I0
sg13
I458
sg66
F68.5
sbag3474
ag0
(g46
g2
Ntp3488
Rp3489
(dp3490
g12
I0
sg50
I0
sg14
I00
sg15
g51
sg52
I0
sg53
S'COF'
p3491
sg55
g56
sg19
g0
(g20
g2
Ntp3492
Rp3493
(dp3494
g24
S'COF'
p3495
sg26
I227413337
sg27
S'100'
p3496
sg28
S'COF'
p3497
sg30
S'OPT'
p3498
sg32
I00
sg33
Nsg35
g78
sg36
S'20160506'
p3499
sg37
S'USD'
p3500
sg39
S'COF   160506P00068000'
p3501
sg41
S'SMART'
p3502
sg43
F68.0
sbsg57
g3499
sg58
I0
sg59
g10
sg60
I0
sg61
I0
sg62
I0
sg63
I0
sg64
I01
sg65
I0
sg13
I460
sg66
F68.0
sbag3489
ag0
(g46
g2
Ntp3503
Rp3504
(dp3505
g12
I0
sg50
I0
sg14
I00
sg15
g51
sg52
I0
sg53
S'COF'
p3506
sg55
g56
sg19
g0
(g20
g2
Ntp3507
Rp3508
(dp3509
g24
S'COF'
p3510
sg26
I227413340
sg27
S'100'
p3511
sg28
S'COF'
p3512
sg30
S'OPT'
p3513
sg32
I00
sg33
Nsg35
g78
sg36
S'20160506'
p3514
sg37
S'USD'
p3515
sg39
S'COF   160506P00069500'
p3516
sg41
S'SMART'
p3517
sg43
F69.5
sbsg57
g3514
sg58
I0
sg59
g10
sg60
I0
sg61
I0
sg62
I0
sg63
I0
sg64
I01
sg65
I0
sg13
I462
sg66
F69.5
sbag3504
ag0
(g46
g2
Ntp3518
Rp3519
(dp3520
g12
I0
sg50
I0
sg14
I00
sg15
g51
sg52
I0
sg53
S'COF'
p3521
sg55
g56
sg19
g0
(g20
g2
Ntp3522
Rp3523
(dp3524
g24
S'COF'
p3525
sg26
I227413344
sg27
S'100'
p3526
sg28
S'COF'
p3527
sg30
S'OPT'
p3528
sg32
I00
sg33
Nsg35
g78
sg36
S'20160506'
p3529
sg37
S'USD'
p3530
sg39
S'COF   160506P00069000'
p3531
sg41
S'SMART'
p3532
sg43
F69.0
sbsg57
g3529
sg58
I0
sg59
g10
sg60
I0
sg61
I0
sg62
I0
sg63
I0
sg64
I01
sg65
I0
sg13
I464
sg66
F69.0
sbag3519
ag0
(g46
g2
Ntp3533
Rp3534
(dp3535
g12
I0
sg50
I0
sg14
I00
sg15
g51
sg52
I0
sg53
S'COF'
p3536
sg55
g56
sg19
g0
(g20
g2
Ntp3537
Rp3538
(dp3539
g24
S'COF'
p3540
sg26
I227413349
sg27
S'100'
p3541
sg28
S'COF'
p3542
sg30
S'OPT'
p3543
sg32
I00
sg33
Nsg35
g78
sg36
S'20160506'
p3544
sg37
S'USD'
p3545
sg39
S'COF   160506P00070500'
p3546
sg41
S'SMART'
p3547
sg43
F70.5
sbsg57
g3544
sg58
I0
sg59
g10
sg60
I0
sg61
I0
sg62
I0
sg63
I0
sg64
I01
sg65
I0
sg13
I466
sg66
F70.5
sbag3534
ag0
(g46
g2
Ntp3548
Rp3549
(dp3550
g12
I0
sg50
I0
sg14
I00
sg15
g51
sg52
I0
sg53
S'COF'
p3551
sg55
g56
sg19
g0
(g20
g2
Ntp3552
Rp3553
(dp3554
g24
S'COF'
p3555
sg26
I227413354
sg27
S'100'
p3556
sg28
S'COF'
p3557
sg30
S'OPT'
p3558
sg32
I00
sg33
Nsg35
g78
sg36
S'20160506'
p3559
sg37
S'USD'
p3560
sg39
S'COF   160506P00070000'
p3561
sg41
S'SMART'
p3562
sg43
F70.0
sbsg57
g3559
sg58
I0
sg59
g10
sg60
I0
sg61
I0
sg62
I0
sg63
I0
sg64
I01
sg65
I0
sg13
I468
sg66
F70.0
sbag3549
ag0
(g46
g2
Ntp3563
Rp3564
(dp3565
g12
I0
sg50
I0
sg14
I00
sg15
g51
sg52
I0
sg53
S'COF'
p3566
sg55
g56
sg19
g0
(g20
g2
Ntp3567
Rp3568
(dp3569
g24
S'COF'
p3570
sg26
I227413359
sg27
S'100'
p3571
sg28
S'COF'
p3572
sg30
S'OPT'
p3573
sg32
I00
sg33
Nsg35
g78
sg36
S'20160506'
p3574
sg37
S'USD'
p3575
sg39
S'COF   160506P00071500'
p3576
sg41
S'SMART'
p3577
sg43
F71.5
sbsg57
g3574
sg58
I0
sg59
g10
sg60
I0
sg61
I0
sg62
I0
sg63
I0
sg64
I01
sg65
I0
sg13
I470
sg66
F71.5
sbag3564
ag0
(g46
g2
Ntp3578
Rp3579
(dp3580
g12
I0
sg50
I0
sg14
I00
sg15
g51
sg52
I0
sg53
S'COF'
p3581
sg55
g56
sg19
g0
(g20
g2
Ntp3582
Rp3583
(dp3584
g24
S'COF'
p3585
sg26
I227413361
sg27
S'100'
p3586
sg28
S'COF'
p3587
sg30
S'OPT'
p3588
sg32
I00
sg33
Nsg35
g78
sg36
S'20160506'
p3589
sg37
S'USD'
p3590
sg39
S'COF   160506P00071000'
p3591
sg41
S'SMART'
p3592
sg43
F71.0
sbsg57
g3589
sg58
I0
sg59
g10
sg60
I0
sg61
I0
sg62
I0
sg63
I0
sg64
I01
sg65
I0
sg13
I472
sg66
F71.0
sbag3579
ag0
(g46
g2
Ntp3593
Rp3594
(dp3595
g12
I0
sg50
I0
sg14
I00
sg15
g51
sg52
I0
sg53
S'COF'
p3596
sg55
g56
sg19
g0
(g20
g2
Ntp3597
Rp3598
(dp3599
g24
S'COF'
p3600
sg26
I227413364
sg27
S'100'
p3601
sg28
S'COF'
p3602
sg30
S'OPT'
p3603
sg32
I00
sg33
Nsg35
g78
sg36
S'20160506'
p3604
sg37
S'USD'
p3605
sg39
S'COF   160506P00072500'
p3606
sg41
S'SMART'
p3607
sg43
F72.5
sbsg57
g3604
sg58
I0
sg59
g10
sg60
I0
sg61
I0
sg62
I0
sg63
I0
sg64
I01
sg65
I0
sg13
I474
sg66
F72.5
sbag3594
ag0
(g46
g2
Ntp3608
Rp3609
(dp3610
g12
I0
sg50
I0
sg14
I00
sg15
g51
sg52
I0
sg53
S'COF'
p3611
sg55
g56
sg19
g0
(g20
g2
Ntp3612
Rp3613
(dp3614
g24
S'COF'
p3615
sg26
I227413371
sg27
S'100'
p3616
sg28
S'COF'
p3617
sg30
S'OPT'
p3618
sg32
I00
sg33
Nsg35
g78
sg36
S'20160506'
p3619
sg37
S'USD'
p3620
sg39
S'COF   160506P00072000'
p3621
sg41
S'SMART'
p3622
sg43
F72.0
sbsg57
g3619
sg58
I0
sg59
g10
sg60
I0
sg61
I0
sg62
I0
sg63
I0
sg64
I01
sg65
I0
sg13
I476
sg66
F72.0
sbag3609
ag0
(g46
g2
Ntp3623
Rp3624
(dp3625
g12
I0
sg50
I0
sg14
I00
sg15
g51
sg52
I0
sg53
S'COF'
p3626
sg55
g56
sg19
g0
(g20
g2
Ntp3627
Rp3628
(dp3629
g24
S'COF'
p3630
sg26
I227413374
sg27
S'100'
p3631
sg28
S'COF'
p3632
sg30
S'OPT'
p3633
sg32
I00
sg33
Nsg35
g78
sg36
S'20160506'
p3634
sg37
S'USD'
p3635
sg39
S'COF   160506P00073500'
p3636
sg41
S'SMART'
p3637
sg43
F73.5
sbsg57
g3634
sg58
I0
sg59
g10
sg60
I0
sg61
I0
sg62
I0
sg63
I0
sg64
I01
sg65
I0
sg13
I478
sg66
F73.5
sbag3624
ag0
(g46
g2
Ntp3638
Rp3639
(dp3640
g12
I0
sg50
I0
sg14
I00
sg15
g51
sg52
I0
sg53
S'COF'
p3641
sg55
g56
sg19
g0
(g20
g2
Ntp3642
Rp3643
(dp3644
g24
S'COF'
p3645
sg26
I227413377
sg27
S'100'
p3646
sg28
S'COF'
p3647
sg30
S'OPT'
p3648
sg32
I00
sg33
Nsg35
g78
sg36
S'20160506'
p3649
sg37
S'USD'
p3650
sg39
S'COF   160506P00073000'
p3651
sg41
S'SMART'
p3652
sg43
F73.0
sbsg57
g3649
sg58
I0
sg59
g10
sg60
I0
sg61
I0
sg62
I0
sg63
I0
sg64
I01
sg65
I0
sg13
I480
sg66
F73.0
sbag3639
ag0
(g46
g2
Ntp3653
Rp3654
(dp3655
g12
I0
sg50
I0
sg14
I00
sg15
g51
sg52
I0
sg53
S'COF'
p3656
sg55
g56
sg19
g0
(g20
g2
Ntp3657
Rp3658
(dp3659
g24
S'COF'
p3660
sg26
I227413380
sg27
S'100'
p3661
sg28
S'COF'
p3662
sg30
S'OPT'
p3663
sg32
I00
sg33
Nsg35
g78
sg36
S'20160506'
p3664
sg37
S'USD'
p3665
sg39
S'COF   160506P00074500'
p3666
sg41
S'SMART'
p3667
sg43
F74.5
sbsg57
g3664
sg58
I0
sg59
g10
sg60
I0
sg61
I0
sg62
I0
sg63
I0
sg64
I01
sg65
I0
sg13
I482
sg66
F74.5
sbag3654
ag0
(g46
g2
Ntp3668
Rp3669
(dp3670
g12
I0
sg50
I0
sg14
I00
sg15
g51
sg52
I0
sg53
S'COF'
p3671
sg55
g56
sg19
g0
(g20
g2
Ntp3672
Rp3673
(dp3674
g24
S'COF'
p3675
sg26
I227413387
sg27
S'100'
p3676
sg28
S'COF'
p3677
sg30
S'OPT'
p3678
sg32
I00
sg33
Nsg35
g78
sg36
S'20160506'
p3679
sg37
S'USD'
p3680
sg39
S'COF   160506P00074000'
p3681
sg41
S'SMART'
p3682
sg43
F74.0
sbsg57
g3679
sg58
I0
sg59
g10
sg60
I0
sg61
I0
sg62
I0
sg63
I0
sg64
I01
sg65
I0
sg13
I484
sg66
F74.0
sbag3669
ag0
(g46
g2
Ntp3683
Rp3684
(dp3685
g12
I0
sg50
I0
sg14
I00
sg15
g51
sg52
I0
sg53
S'COF'
p3686
sg55
g56
sg19
g0
(g20
g2
Ntp3687
Rp3688
(dp3689
g24
S'COF'
p3690
sg26
I227413390
sg27
S'100'
p3691
sg28
S'COF'
p3692
sg30
S'OPT'
p3693
sg32
I00
sg33
Nsg35
g78
sg36
S'20160506'
p3694
sg37
S'USD'
p3695
sg39
S'COF   160506P00075500'
p3696
sg41
S'SMART'
p3697
sg43
F75.5
sbsg57
g3694
sg58
I0
sg59
g10
sg60
I0
sg61
I0
sg62
I0
sg63
I0
sg64
I01
sg65
I0
sg13
I486
sg66
F75.5
sbag3684
ag0
(g46
g2
Ntp3698
Rp3699
(dp3700
g12
I0
sg50
I0
sg14
I00
sg15
g51
sg52
I0
sg53
S'COF'
p3701
sg55
g56
sg19
g0
(g20
g2
Ntp3702
Rp3703
(dp3704
g24
S'COF'
p3705
sg26
I227413392
sg27
S'100'
p3706
sg28
S'COF'
p3707
sg30
S'OPT'
p3708
sg32
I00
sg33
Nsg35
g78
sg36
S'20160506'
p3709
sg37
S'USD'
p3710
sg39
S'COF   160506P00075000'
p3711
sg41
S'SMART'
p3712
sg43
F75.0
sbsg57
g3709
sg58
I0
sg59
g10
sg60
I0
sg61
I0
sg62
I0
sg63
I0
sg64
I01
sg65
I0
sg13
I488
sg66
F75.0
sbag3699
ag0
(g46
g2
Ntp3713
Rp3714
(dp3715
g12
I0
sg50
I0
sg14
I00
sg15
g51
sg52
I0
sg53
S'COF'
p3716
sg55
g56
sg19
g0
(g20
g2
Ntp3717
Rp3718
(dp3719
g24
S'COF'
p3720
sg26
I227413397
sg27
S'100'
p3721
sg28
S'COF'
p3722
sg30
S'OPT'
p3723
sg32
I00
sg33
Nsg35
g78
sg36
S'20160506'
p3724
sg37
S'USD'
p3725
sg39
S'COF   160506P00076500'
p3726
sg41
S'SMART'
p3727
sg43
F76.5
sbsg57
g3724
sg58
I0
sg59
g10
sg60
I0
sg61
I0
sg62
I0
sg63
I0
sg64
I01
sg65
I0
sg13
I490
sg66
F76.5
sbag3714
ag0
(g46
g2
Ntp3728
Rp3729
(dp3730
g12
I0
sg50
I0
sg14
I00
sg15
g51
sg52
I0
sg53
S'COF'
p3731
sg55
g56
sg19
g0
(g20
g2
Ntp3732
Rp3733
(dp3734
g24
S'COF'
p3735
sg26
I227413402
sg27
S'100'
p3736
sg28
S'COF'
p3737
sg30
S'OPT'
p3738
sg32
I00
sg33
Nsg35
g78
sg36
S'20160506'
p3739
sg37
S'USD'
p3740
sg39
S'COF   160506P00076000'
p3741
sg41
S'SMART'
p3742
sg43
F76.0
sbsg57
g3739
sg58
I0
sg59
g10
sg60
I0
sg61
I0
sg62
I0
sg63
I0
sg64
I01
sg65
I0
sg13
I492
sg66
F76.0
sbag3729
ag0
(g46
g2
Ntp3743
Rp3744
(dp3745
g12
I0
sg50
I0
sg14
I00
sg15
g51
sg52
I0
sg53
S'COF'
p3746
sg55
g56
sg19
g0
(g20
g2
Ntp3747
Rp3748
(dp3749
g24
S'COF'
p3750
sg26
I227413407
sg27
S'100'
p3751
sg28
S'COF'
p3752
sg30
S'OPT'
p3753
sg32
I00
sg33
Nsg35
g78
sg36
S'20160506'
p3754
sg37
S'USD'
p3755
sg39
S'COF   160506P00077500'
p3756
sg41
S'SMART'
p3757
sg43
F77.5
sbsg57
g3754
sg58
I0
sg59
g10
sg60
I0
sg61
I0
sg62
I0
sg63
I0
sg64
I01
sg65
I0
sg13
I494
sg66
F77.5
sbag3744
ag0
(g46
g2
Ntp3758
Rp3759
(dp3760
g12
I0
sg50
I0
sg14
I00
sg15
g51
sg52
I0
sg53
S'COF'
p3761
sg55
g56
sg19
g0
(g20
g2
Ntp3762
Rp3763
(dp3764
g24
S'COF'
p3765
sg26
I227413411
sg27
S'100'
p3766
sg28
S'COF'
p3767
sg30
S'OPT'
p3768
sg32
I00
sg33
Nsg35
g78
sg36
S'20160506'
p3769
sg37
S'USD'
p3770
sg39
S'COF   160506P00077000'
p3771
sg41
S'SMART'
p3772
sg43
F77.0
sbsg57
g3769
sg58
I0
sg59
g10
sg60
I0
sg61
I0
sg62
I0
sg63
I0
sg64
I01
sg65
I0
sg13
I496
sg66
F77.0
sbag3759
ag0
(g46
g2
Ntp3773
Rp3774
(dp3775
g12
I0
sg50
I0
sg14
I00
sg15
g51
sg52
I0
sg53
S'COF'
p3776
sg55
g56
sg19
g0
(g20
g2
Ntp3777
Rp3778
(dp3779
g24
S'COF'
p3780
sg26
I227413414
sg27
S'100'
p3781
sg28
S'COF'
p3782
sg30
S'OPT'
p3783
sg32
I00
sg33
Nsg35
g78
sg36
S'20160506'
p3784
sg37
S'USD'
p3785
sg39
S'COF   160506P00078000'
p3786
sg41
S'SMART'
p3787
sg43
F78.0
sbsg57
g3784
sg58
I0
sg59
g10
sg60
I0
sg61
I0
sg62
I0
sg63
I0
sg64
I01
sg65
I0
sg13
I498
sg66
F78.0
sbag3774
ag0
(g46
g2
Ntp3788
Rp3789
(dp3790
g12
I0
sg50
I0
sg14
I00
sg15
g51
sg52
I0
sg53
S'COF'
p3791
sg55
g56
sg19
g0
(g20
g2
Ntp3792
Rp3793
(dp3794
g24
S'COF'
p3795
sg26
I227413417
sg27
S'100'
p3796
sg28
S'COF'
p3797
sg30
S'OPT'
p3798
sg32
I00
sg33
Nsg35
g78
sg36
S'20160506'
p3799
sg37
S'USD'
p3800
sg39
S'COF   160506P00079000'
p3801
sg41
S'SMART'
p3802
sg43
F79.0
sbsg57
g3799
sg58
I0
sg59
g10
sg60
I0
sg61
I0
sg62
I0
sg63
I0
sg64
I01
sg65
I0
sg13
I500
sg66
F79.0
sbag3789
ag0
(g46
g2
Ntp3803
Rp3804
(dp3805
g12
I0
sg50
I0
sg14
I00
sg15
g51
sg52
I0
sg53
S'COF'
p3806
sg55
g56
sg19
g0
(g20
g2
Ntp3807
Rp3808
(dp3809
g24
S'COF'
p3810
sg26
I227413420
sg27
S'100'
p3811
sg28
S'COF'
p3812
sg30
S'OPT'
p3813
sg32
I00
sg33
Nsg35
g78
sg36
S'20160506'
p3814
sg37
S'USD'
p3815
sg39
S'COF   160506P00080000'
p3816
sg41
S'SMART'
p3817
sg43
F80.0
sbsg57
g3814
sg58
I0
sg59
g10
sg60
I0
sg61
I0
sg62
I0
sg63
I0
sg64
I01
sg65
I0
sg13
I502
sg66
F80.0
sbag3804
ag0
(g46
g2
Ntp3818
Rp3819
(dp3820
g12
I0
sg50
I0
sg14
I00
sg15
g51
sg52
I0
sg53
S'COF'
p3821
sg55
g56
sg19
g0
(g20
g2
Ntp3822
Rp3823
(dp3824
g24
S'COF'
p3825
sg26
I227593436
sg27
S'100'
p3826
sg28
S'COF'
p3827
sg30
S'OPT'
p3828
sg32
I00
sg33
Nsg35
g78
sg36
S'20160422'
p3829
sg37
S'USD'
p3830
sg39
S'COF   160422P00078000'
p3831
sg41
S'SMART'
p3832
sg43
F78.0
sbsg57
g3829
sg58
I0
sg59
g10
sg60
I0
sg61
I0
sg62
I0
sg63
I0
sg64
I01
sg65
I0
sg13
I504
sg66
F78.0
sbag3819
ag0
(g46
g2
Ntp3833
Rp3834
(dp3835
g12
I0
sg50
I0
sg14
I00
sg15
g51
sg52
I0
sg53
S'COF'
p3836
sg55
g56
sg19
g0
(g20
g2
Ntp3837
Rp3838
(dp3839
g24
S'COF'
p3840
sg26
I227593440
sg27
S'100'
p3841
sg28
S'COF'
p3842
sg30
S'OPT'
p3843
sg32
I00
sg33
Nsg35
g78
sg36
S'20160422'
p3844
sg37
S'USD'
p3845
sg39
S'COF   160422P00079000'
p3846
sg41
S'SMART'
p3847
sg43
F79.0
sbsg57
g3844
sg58
I0
sg59
g10
sg60
I0
sg61
I0
sg62
I0
sg63
I0
sg64
I01
sg65
I0
sg13
I506
sg66
F79.0
sbag3834
ag0
(g46
g2
Ntp3848
Rp3849
(dp3850
g12
I0
sg50
I0
sg14
I00
sg15
g51
sg52
I0
sg53
S'COF'
p3851
sg55
g56
sg19
g0
(g20
g2
Ntp3852
Rp3853
(dp3854
g24
S'COF'
p3855
sg26
I227593450
sg27
S'100'
p3856
sg28
S'COF'
p3857
sg30
S'OPT'
p3858
sg32
I00
sg33
Nsg35
g78
sg36
S'20160506'
p3859
sg37
S'USD'
p3860
sg39
S'COF   160506P00060000'
p3861
sg41
S'SMART'
p3862
sg43
F60.0
sbsg57
g3859
sg58
I0
sg59
g10
sg60
I0
sg61
I0
sg62
I0
sg63
I0
sg64
I01
sg65
I0
sg13
I508
sg66
F60.0
sbag3849
ag0
(g46
g2
Ntp3863
Rp3864
(dp3865
g12
I0
sg50
I0
sg14
I00
sg15
g51
sg52
I0
sg53
S'COF'
p3866
sg55
g56
sg19
g0
(g20
g2
Ntp3867
Rp3868
(dp3869
g24
S'COF'
p3870
sg26
I227711800
sg27
S'100'
p3871
sg28
S'COF'
p3872
sg30
S'OPT'
p3873
sg32
I00
sg33
Nsg35
g78
sg36
S'20160506'
p3874
sg37
S'USD'
p3875
sg39
S'COF   160506P00050000'
p3876
sg41
S'SMART'
p3877
sg43
F50.0
sbsg57
g3874
sg58
I0
sg59
g10
sg60
I0
sg61
I0
sg62
I0
sg63
I0
sg64
I01
sg65
I0
sg13
I510
sg66
F50.0
sbag3864
ag0
(g46
g2
Ntp3878
Rp3879
(dp3880
g12
I0
sg50
I0
sg14
I00
sg15
g51
sg52
I0
sg53
S'COF'
p3881
sg55
g56
sg19
g0
(g20
g2
Ntp3882
Rp3883
(dp3884
g24
S'COF'
p3885
sg26
I227711805
sg27
S'100'
p3886
sg28
S'COF'
p3887
sg30
S'OPT'
p3888
sg32
I00
sg33
Nsg35
g78
sg36
S'20160506'
p3889
sg37
S'USD'
p3890
sg39
S'COF   160506P00055000'
p3891
sg41
S'SMART'
p3892
sg43
F55.0
sbsg57
g3889
sg58
I0
sg59
g10
sg60
I0
sg61
I0
sg62
I0
sg63
I0
sg64
I01
sg65
I0
sg13
I512
sg66
F55.0
sbag3879
ag0
(g46
g2
Ntp3893
Rp3894
(dp3895
g12
I0
sg50
I0
sg14
I00
sg15
g51
sg52
I0
sg53
S'COF'
p3896
sg55
g56
sg19
g0
(g20
g2
Ntp3897
Rp3898
(dp3899
g24
S'COF'
p3900
sg26
I227878286
sg27
S'100'
p3901
sg28
S'COF'
p3902
sg30
S'OPT'
p3903
sg32
I00
sg33
Nsg35
g78
sg36
S'20160513'
p3904
sg37
S'USD'
p3905
sg39
S'COF   160513P00061000'
p3906
sg41
S'SMART'
p3907
sg43
F61.0
sbsg57
g3904
sg58
I0
sg59
g10
sg60
I0
sg61
I0
sg62
I0
sg63
I0
sg64
I01
sg65
I0
sg13
I514
sg66
F61.0
sbag3894
ag0
(g46
g2
Ntp3908
Rp3909
(dp3910
g12
I0
sg50
I0
sg14
I00
sg15
g51
sg52
I0
sg53
S'COF'
p3911
sg55
g56
sg19
g0
(g20
g2
Ntp3912
Rp3913
(dp3914
g24
S'COF'
p3915
sg26
I227878288
sg27
S'100'
p3916
sg28
S'COF'
p3917
sg30
S'OPT'
p3918
sg32
I00
sg33
Nsg35
g78
sg36
S'20160513'
p3919
sg37
S'USD'
p3920
sg39
S'COF   160513P00062500'
p3921
sg41
S'SMART'
p3922
sg43
F62.5
sbsg57
g3919
sg58
I0
sg59
g10
sg60
I0
sg61
I0
sg62
I0
sg63
I0
sg64
I01
sg65
I0
sg13
I516
sg66
F62.5
sbag3909
ag0
(g46
g2
Ntp3923
Rp3924
(dp3925
g12
I0
sg50
I0
sg14
I00
sg15
g51
sg52
I0
sg53
S'COF'
p3926
sg55
g56
sg19
g0
(g20
g2
Ntp3927
Rp3928
(dp3929
g24
S'COF'
p3930
sg26
I227878293
sg27
S'100'
p3931
sg28
S'COF'
p3932
sg30
S'OPT'
p3933
sg32
I00
sg33
Nsg35
g78
sg36
S'20160513'
p3934
sg37
S'USD'
p3935
sg39
S'COF   160513P00062000'
p3936
sg41
S'SMART'
p3937
sg43
F62.0
sbsg57
g3934
sg58
I0
sg59
g10
sg60
I0
sg61
I0
sg62
I0
sg63
I0
sg64
I01
sg65
I0
sg13
I518
sg66
F62.0
sbag3924
ag0
(g46
g2
Ntp3938
Rp3939
(dp3940
g12
I0
sg50
I0
sg14
I00
sg15
g51
sg52
I0
sg53
S'COF'
p3941
sg55
g56
sg19
g0
(g20
g2
Ntp3942
Rp3943
(dp3944
g24
S'COF'
p3945
sg26
I227878298
sg27
S'100'
p3946
sg28
S'COF'
p3947
sg30
S'OPT'
p3948
sg32
I00
sg33
Nsg35
g78
sg36
S'20160513'
p3949
sg37
S'USD'
p3950
sg39
S'COF   160513P00063500'
p3951
sg41
S'SMART'
p3952
sg43
F63.5
sbsg57
g3949
sg58
I0
sg59
g10
sg60
I0
sg61
I0
sg62
I0
sg63
I0
sg64
I01
sg65
I0
sg13
I520
sg66
F63.5
sbag3939
ag0
(g46
g2
Ntp3953
Rp3954
(dp3955
g12
I0
sg50
I0
sg14
I00
sg15
g51
sg52
I0
sg53
S'COF'
p3956
sg55
g56
sg19
g0
(g20
g2
Ntp3957
Rp3958
(dp3959
g24
S'COF'
p3960
sg26
I227878303
sg27
S'100'
p3961
sg28
S'COF'
p3962
sg30
S'OPT'
p3963
sg32
I00
sg33
Nsg35
g78
sg36
S'20160513'
p3964
sg37
S'USD'
p3965
sg39
S'COF   160513P00063000'
p3966
sg41
S'SMART'
p3967
sg43
F63.0
sbsg57
g3964
sg58
I0
sg59
g10
sg60
I0
sg61
I0
sg62
I0
sg63
I0
sg64
I01
sg65
I0
sg13
I522
sg66
F63.0
sbag3954
ag0
(g46
g2
Ntp3968
Rp3969
(dp3970
g12
I0
sg50
I0
sg14
I00
sg15
g51
sg52
I0
sg53
S'COF'
p3971
sg55
g56
sg19
g0
(g20
g2
Ntp3972
Rp3973
(dp3974
g24
S'COF'
p3975
sg26
I227878307
sg27
S'100'
p3976
sg28
S'COF'
p3977
sg30
S'OPT'
p3978
sg32
I00
sg33
Nsg35
g78
sg36
S'20160513'
p3979
sg37
S'USD'
p3980
sg39
S'COF   160513P00064500'
p3981
sg41
S'SMART'
p3982
sg43
F64.5
sbsg57
g3979
sg58
I0
sg59
g10
sg60
I0
sg61
I0
sg62
I0
sg63
I0
sg64
I01
sg65
I0
sg13
I524
sg66
F64.5
sbag3969
ag0
(g46
g2
Ntp3983
Rp3984
(dp3985
g12
I0
sg50
I0
sg14
I00
sg15
g51
sg52
I0
sg53
S'COF'
p3986
sg55
g56
sg19
g0
(g20
g2
Ntp3987
Rp3988
(dp3989
g24
S'COF'
p3990
sg26
I227878310
sg27
S'100'
p3991
sg28
S'COF'
p3992
sg30
S'OPT'
p3993
sg32
I00
sg33
Nsg35
g78
sg36
S'20160513'
p3994
sg37
S'USD'
p3995
sg39
S'COF   160513P00064000'
p3996
sg41
S'SMART'
p3997
sg43
F64.0
sbsg57
g3994
sg58
I0
sg59
g10
sg60
I0
sg61
I0
sg62
I0
sg63
I0
sg64
I01
sg65
I0
sg13
I526
sg66
F64.0
sbag3984
ag0
(g46
g2
Ntp3998
Rp3999
(dp4000
g12
I0
sg50
I0
sg14
I00
sg15
g51
sg52
I0
sg53
S'COF'
p4001
sg55
g56
sg19
g0
(g20
g2
Ntp4002
Rp4003
(dp4004
g24
S'COF'
p4005
sg26
I227878313
sg27
S'100'
p4006
sg28
S'COF'
p4007
sg30
S'OPT'
p4008
sg32
I00
sg33
Nsg35
g78
sg36
S'20160513'
p4009
sg37
S'USD'
p4010
sg39
S'COF   160513P00065500'
p4011
sg41
S'SMART'
p4012
sg43
F65.5
sbsg57
g4009
sg58
I0
sg59
g10
sg60
I0
sg61
I0
sg62
I0
sg63
I0
sg64
I01
sg65
I0
sg13
I528
sg66
F65.5
sbag3999
ag0
(g46
g2
Ntp4013
Rp4014
(dp4015
g12
I0
sg50
I0
sg14
I00
sg15
g51
sg52
I0
sg53
S'COF'
p4016
sg55
g56
sg19
g0
(g20
g2
Ntp4017
Rp4018
(dp4019
g24
S'COF'
p4020
sg26
I227878316
sg27
S'100'
p4021
sg28
S'COF'
p4022
sg30
S'OPT'
p4023
sg32
I00
sg33
Nsg35
g78
sg36
S'20160513'
p4024
sg37
S'USD'
p4025
sg39
S'COF   160513P00065000'
p4026
sg41
S'SMART'
p4027
sg43
F65.0
sbsg57
g4024
sg58
I0
sg59
g10
sg60
I0
sg61
I0
sg62
I0
sg63
I0
sg64
I01
sg65
I0
sg13
I530
sg66
F65.0
sbag4014
ag0
(g46
g2
Ntp4028
Rp4029
(dp4030
g12
I0
sg50
I0
sg14
I00
sg15
g51
sg52
I0
sg53
S'COF'
p4031
sg55
g56
sg19
g0
(g20
g2
Ntp4032
Rp4033
(dp4034
g24
S'COF'
p4035
sg26
I227878322
sg27
S'100'
p4036
sg28
S'COF'
p4037
sg30
S'OPT'
p4038
sg32
I00
sg33
Nsg35
g78
sg36
S'20160513'
p4039
sg37
S'USD'
p4040
sg39
S'COF   160513P00066500'
p4041
sg41
S'SMART'
p4042
sg43
F66.5
sbsg57
g4039
sg58
I0
sg59
g10
sg60
I0
sg61
I0
sg62
I0
sg63
I0
sg64
I01
sg65
I0
sg13
I532
sg66
F66.5
sbag4029
ag0
(g46
g2
Ntp4043
Rp4044
(dp4045
g12
I0
sg50
I0
sg14
I00
sg15
g51
sg52
I0
sg53
S'COF'
p4046
sg55
g56
sg19
g0
(g20
g2
Ntp4047
Rp4048
(dp4049
g24
S'COF'
p4050
sg26
I227878327
sg27
S'100'
p4051
sg28
S'COF'
p4052
sg30
S'OPT'
p4053
sg32
I00
sg33
Nsg35
g78
sg36
S'20160513'
p4054
sg37
S'USD'
p4055
sg39
S'COF   160513P00066000'
p4056
sg41
S'SMART'
p4057
sg43
F66.0
sbsg57
g4054
sg58
I0
sg59
g10
sg60
I0
sg61
I0
sg62
I0
sg63
I0
sg64
I01
sg65
I0
sg13
I534
sg66
F66.0
sbag4044
ag0
(g46
g2
Ntp4058
Rp4059
(dp4060
g12
I0
sg50
I0
sg14
I00
sg15
g51
sg52
I0
sg53
S'COF'
p4061
sg55
g56
sg19
g0
(g20
g2
Ntp4062
Rp4063
(dp4064
g24
S'COF'
p4065
sg26
I227878328
sg27
S'100'
p4066
sg28
S'COF'
p4067
sg30
S'OPT'
p4068
sg32
I00
sg33
Nsg35
g78
sg36
S'20160513'
p4069
sg37
S'USD'
p4070
sg39
S'COF   160513P00067500'
p4071
sg41
S'SMART'
p4072
sg43
F67.5
sbsg57
g4069
sg58
I0
sg59
g10
sg60
I0
sg61
I0
sg62
I0
sg63
I0
sg64
I01
sg65
I0
sg13
I536
sg66
F67.5
sbag4059
ag0
(g46
g2
Ntp4073
Rp4074
(dp4075
g12
I0
sg50
I0
sg14
I00
sg15
g51
sg52
I0
sg53
S'COF'
p4076
sg55
g56
sg19
g0
(g20
g2
Ntp4077
Rp4078
(dp4079
g24
S'COF'
p4080
sg26
I227878333
sg27
S'100'
p4081
sg28
S'COF'
p4082
sg30
S'OPT'
p4083
sg32
I00
sg33
Nsg35
g78
sg36
S'20160513'
p4084
sg37
S'USD'
p4085
sg39
S'COF   160513P00067000'
p4086
sg41
S'SMART'
p4087
sg43
F67.0
sbsg57
g4084
sg58
I0
sg59
g10
sg60
I0
sg61
I0
sg62
I0
sg63
I0
sg64
I01
sg65
I0
sg13
I538
sg66
F67.0
sbag4074
ag0
(g46
g2
Ntp4088
Rp4089
(dp4090
g12
I0
sg50
I0
sg14
I00
sg15
g51
sg52
I0
sg53
S'COF'
p4091
sg55
g56
sg19
g0
(g20
g2
Ntp4092
Rp4093
(dp4094
g24
S'COF'
p4095
sg26
I227878336
sg27
S'100'
p4096
sg28
S'COF'
p4097
sg30
S'OPT'
p4098
sg32
I00
sg33
Nsg35
g78
sg36
S'20160513'
p4099
sg37
S'USD'
p4100
sg39
S'COF   160513P00068500'
p4101
sg41
S'SMART'
p4102
sg43
F68.5
sbsg57
g4099
sg58
I0
sg59
g10
sg60
I0
sg61
I0
sg62
I0
sg63
I0
sg64
I01
sg65
I0
sg13
I540
sg66
F68.5
sbag4089
ag0
(g46
g2
Ntp4103
Rp4104
(dp4105
g12
I0
sg50
I0
sg14
I00
sg15
g51
sg52
I0
sg53
S'COF'
p4106
sg55
g56
sg19
g0
(g20
g2
Ntp4107
Rp4108
(dp4109
g24
S'COF'
p4110
sg26
I227878341
sg27
S'100'
p4111
sg28
S'COF'
p4112
sg30
S'OPT'
p4113
sg32
I00
sg33
Nsg35
g78
sg36
S'20160513'
p4114
sg37
S'USD'
p4115
sg39
S'COF   160513P00068000'
p4116
sg41
S'SMART'
p4117
sg43
F68.0
sbsg57
g4114
sg58
I0
sg59
g10
sg60
I0
sg61
I0
sg62
I0
sg63
I0
sg64
I01
sg65
I0
sg13
I542
sg66
F68.0
sbag4104
ag0
(g46
g2
Ntp4118
Rp4119
(dp4120
g12
I0
sg50
I0
sg14
I00
sg15
g51
sg52
I0
sg53
S'COF'
p4121
sg55
g56
sg19
g0
(g20
g2
Ntp4122
Rp4123
(dp4124
g24
S'COF'
p4125
sg26
I227878346
sg27
S'100'
p4126
sg28
S'COF'
p4127
sg30
S'OPT'
p4128
sg32
I00
sg33
Nsg35
g78
sg36
S'20160513'
p4129
sg37
S'USD'
p4130
sg39
S'COF   160513P00069500'
p4131
sg41
S'SMART'
p4132
sg43
F69.5
sbsg57
g4129
sg58
I0
sg59
g10
sg60
I0
sg61
I0
sg62
I0
sg63
I0
sg64
I01
sg65
I0
sg13
I544
sg66
F69.5
sbag4119
ag0
(g46
g2
Ntp4133
Rp4134
(dp4135
g12
I0
sg50
I0
sg14
I00
sg15
g51
sg52
I0
sg53
S'COF'
p4136
sg55
g56
sg19
g0
(g20
g2
Ntp4137
Rp4138
(dp4139
g24
S'COF'
p4140
sg26
I227878351
sg27
S'100'
p4141
sg28
S'COF'
p4142
sg30
S'OPT'
p4143
sg32
I00
sg33
Nsg35
g78
sg36
S'20160513'
p4144
sg37
S'USD'
p4145
sg39
S'COF   160513P00069000'
p4146
sg41
S'SMART'
p4147
sg43
F69.0
sbsg57
g4144
sg58
I0
sg59
g10
sg60
I0
sg61
I0
sg62
I0
sg63
I0
sg64
I01
sg65
I0
sg13
I546
sg66
F69.0
sbag4134
ag0
(g46
g2
Ntp4148
Rp4149
(dp4150
g12
I0
sg50
I0
sg14
I00
sg15
g51
sg52
I0
sg53
S'COF'
p4151
sg55
g56
sg19
g0
(g20
g2
Ntp4152
Rp4153
(dp4154
g24
S'COF'
p4155
sg26
I227878353
sg27
S'100'
p4156
sg28
S'COF'
p4157
sg30
S'OPT'
p4158
sg32
I00
sg33
Nsg35
g78
sg36
S'20160513'
p4159
sg37
S'USD'
p4160
sg39
S'COF   160513P00070500'
p4161
sg41
S'SMART'
p4162
sg43
F70.5
sbsg57
g4159
sg58
I0
sg59
g10
sg60
I0
sg61
I0
sg62
I0
sg63
I0
sg64
I01
sg65
I0
sg13
I548
sg66
F70.5
sbag4149
ag0
(g46
g2
Ntp4163
Rp4164
(dp4165
g12
I0
sg50
I0
sg14
I00
sg15
g51
sg52
I0
sg53
S'COF'
p4166
sg55
g56
sg19
g0
(g20
g2
Ntp4167
Rp4168
(dp4169
g24
S'COF'
p4170
sg26
I227878356
sg27
S'100'
p4171
sg28
S'COF'
p4172
sg30
S'OPT'
p4173
sg32
I00
sg33
Nsg35
g78
sg36
S'20160513'
p4174
sg37
S'USD'
p4175
sg39
S'COF   160513P00070000'
p4176
sg41
S'SMART'
p4177
sg43
F70.0
sbsg57
g4174
sg58
I0
sg59
g10
sg60
I0
sg61
I0
sg62
I0
sg63
I0
sg64
I01
sg65
I0
sg13
I550
sg66
F70.0
sbag4164
ag0
(g46
g2
Ntp4178
Rp4179
(dp4180
g12
I0
sg50
I0
sg14
I00
sg15
g51
sg52
I0
sg53
S'COF'
p4181
sg55
g56
sg19
g0
(g20
g2
Ntp4182
Rp4183
(dp4184
g24
S'COF'
p4185
sg26
I227878363
sg27
S'100'
p4186
sg28
S'COF'
p4187
sg30
S'OPT'
p4188
sg32
I00
sg33
Nsg35
g78
sg36
S'20160513'
p4189
sg37
S'USD'
p4190
sg39
S'COF   160513P00071500'
p4191
sg41
S'SMART'
p4192
sg43
F71.5
sbsg57
g4189
sg58
I0
sg59
g10
sg60
I0
sg61
I0
sg62
I0
sg63
I0
sg64
I01
sg65
I0
sg13
I552
sg66
F71.5
sbag4179
ag0
(g46
g2
Ntp4193
Rp4194
(dp4195
g12
I0
sg50
I0
sg14
I00
sg15
g51
sg52
I0
sg53
S'COF'
p4196
sg55
g56
sg19
g0
(g20
g2
Ntp4197
Rp4198
(dp4199
g24
S'COF'
p4200
sg26
I227878366
sg27
S'100'
p4201
sg28
S'COF'
p4202
sg30
S'OPT'
p4203
sg32
I00
sg33
Nsg35
g78
sg36
S'20160513'
p4204
sg37
S'USD'
p4205
sg39
S'COF   160513P00071000'
p4206
sg41
S'SMART'
p4207
sg43
F71.0
sbsg57
g4204
sg58
I0
sg59
g10
sg60
I0
sg61
I0
sg62
I0
sg63
I0
sg64
I01
sg65
I0
sg13
I554
sg66
F71.0
sbag4194
ag0
(g46
g2
Ntp4208
Rp4209
(dp4210
g12
I0
sg50
I0
sg14
I00
sg15
g51
sg52
I0
sg53
S'COF'
p4211
sg55
g56
sg19
g0
(g20
g2
Ntp4212
Rp4213
(dp4214
g24
S'COF'
p4215
sg26
I227878370
sg27
S'100'
p4216
sg28
S'COF'
p4217
sg30
S'OPT'
p4218
sg32
I00
sg33
Nsg35
g78
sg36
S'20160513'
p4219
sg37
S'USD'
p4220
sg39
S'COF   160513P00072500'
p4221
sg41
S'SMART'
p4222
sg43
F72.5
sbsg57
g4219
sg58
I0
sg59
g10
sg60
I0
sg61
I0
sg62
I0
sg63
I0
sg64
I01
sg65
I0
sg13
I556
sg66
F72.5
sbag4209
ag0
(g46
g2
Ntp4223
Rp4224
(dp4225
g12
I0
sg50
I0
sg14
I00
sg15
g51
sg52
I0
sg53
S'COF'
p4226
sg55
g56
sg19
g0
(g20
g2
Ntp4227
Rp4228
(dp4229
g24
S'COF'
p4230
sg26
I227878375
sg27
S'100'
p4231
sg28
S'COF'
p4232
sg30
S'OPT'
p4233
sg32
I00
sg33
Nsg35
g78
sg36
S'20160513'
p4234
sg37
S'USD'
p4235
sg39
S'COF   160513P00072000'
p4236
sg41
S'SMART'
p4237
sg43
F72.0
sbsg57
g4234
sg58
I0
sg59
g10
sg60
I0
sg61
I0
sg62
I0
sg63
I0
sg64
I01
sg65
I0
sg13
I558
sg66
F72.0
sbag4224
ag0
(g46
g2
Ntp4238
Rp4239
(dp4240
g12
I0
sg50
I0
sg14
I00
sg15
g51
sg52
I0
sg53
S'COF'
p4241
sg55
g56
sg19
g0
(g20
g2
Ntp4242
Rp4243
(dp4244
g24
S'COF'
p4245
sg26
I227878376
sg27
S'100'
p4246
sg28
S'COF'
p4247
sg30
S'OPT'
p4248
sg32
I00
sg33
Nsg35
g78
sg36
S'20160513'
p4249
sg37
S'USD'
p4250
sg39
S'COF   160513P00073500'
p4251
sg41
S'SMART'
p4252
sg43
F73.5
sbsg57
g4249
sg58
I0
sg59
g10
sg60
I0
sg61
I0
sg62
I0
sg63
I0
sg64
I01
sg65
I0
sg13
I560
sg66
F73.5
sbag4239
ag0
(g46
g2
Ntp4253
Rp4254
(dp4255
g12
I0
sg50
I0
sg14
I00
sg15
g51
sg52
I0
sg53
S'COF'
p4256
sg55
g56
sg19
g0
(g20
g2
Ntp4257
Rp4258
(dp4259
g24
S'COF'
p4260
sg26
I227878381
sg27
S'100'
p4261
sg28
S'COF'
p4262
sg30
S'OPT'
p4263
sg32
I00
sg33
Nsg35
g78
sg36
S'20160513'
p4264
sg37
S'USD'
p4265
sg39
S'COF   160513P00073000'
p4266
sg41
S'SMART'
p4267
sg43
F73.0
sbsg57
g4264
sg58
I0
sg59
g10
sg60
I0
sg61
I0
sg62
I0
sg63
I0
sg64
I01
sg65
I0
sg13
I562
sg66
F73.0
sbag4254
ag0
(g46
g2
Ntp4268
Rp4269
(dp4270
g12
I0
sg50
I0
sg14
I00
sg15
g51
sg52
I0
sg53
S'COF'
p4271
sg55
g56
sg19
g0
(g20
g2
Ntp4272
Rp4273
(dp4274
g24
S'COF'
p4275
sg26
I227878387
sg27
S'100'
p4276
sg28
S'COF'
p4277
sg30
S'OPT'
p4278
sg32
I00
sg33
Nsg35
g78
sg36
S'20160513'
p4279
sg37
S'USD'
p4280
sg39
S'COF   160513P00074500'
p4281
sg41
S'SMART'
p4282
sg43
F74.5
sbsg57
g4279
sg58
I0
sg59
g10
sg60
I0
sg61
I0
sg62
I0
sg63
I0
sg64
I01
sg65
I0
sg13
I564
sg66
F74.5
sbag4269
ag0
(g46
g2
Ntp4283
Rp4284
(dp4285
g12
I0
sg50
I0
sg14
I00
sg15
g51
sg52
I0
sg53
S'COF'
p4286
sg55
g56
sg19
g0
(g20
g2
Ntp4287
Rp4288
(dp4289
g24
S'COF'
p4290
sg26
I227878390
sg27
S'100'
p4291
sg28
S'COF'
p4292
sg30
S'OPT'
p4293
sg32
I00
sg33
Nsg35
g78
sg36
S'20160513'
p4294
sg37
S'USD'
p4295
sg39
S'COF   160513P00074000'
p4296
sg41
S'SMART'
p4297
sg43
F74.0
sbsg57
g4294
sg58
I0
sg59
g10
sg60
I0
sg61
I0
sg62
I0
sg63
I0
sg64
I01
sg65
I0
sg13
I566
sg66
F74.0
sbag4284
ag0
(g46
g2
Ntp4298
Rp4299
(dp4300
g12
I0
sg50
I0
sg14
I00
sg15
g51
sg52
I0
sg53
S'COF'
p4301
sg55
g56
sg19
g0
(g20
g2
Ntp4302
Rp4303
(dp4304
g24
S'COF'
p4305
sg26
I227878393
sg27
S'100'
p4306
sg28
S'COF'
p4307
sg30
S'OPT'
p4308
sg32
I00
sg33
Nsg35
g78
sg36
S'20160513'
p4309
sg37
S'USD'
p4310
sg39
S'COF   160513P00075500'
p4311
sg41
S'SMART'
p4312
sg43
F75.5
sbsg57
g4309
sg58
I0
sg59
g10
sg60
I0
sg61
I0
sg62
I0
sg63
I0
sg64
I01
sg65
I0
sg13
I568
sg66
F75.5
sbag4299
ag0
(g46
g2
Ntp4313
Rp4314
(dp4315
g12
I0
sg50
I0
sg14
I00
sg15
g51
sg52
I0
sg53
S'COF'
p4316
sg55
g56
sg19
g0
(g20
g2
Ntp4317
Rp4318
(dp4319
g24
S'COF'
p4320
sg26
I227878396
sg27
S'100'
p4321
sg28
S'COF'
p4322
sg30
S'OPT'
p4323
sg32
I00
sg33
Nsg35
g78
sg36
S'20160513'
p4324
sg37
S'USD'
p4325
sg39
S'COF   160513P00075000'
p4326
sg41
S'SMART'
p4327
sg43
F75.0
sbsg57
g4324
sg58
I0
sg59
g10
sg60
I0
sg61
I0
sg62
I0
sg63
I0
sg64
I01
sg65
I0
sg13
I570
sg66
F75.0
sbag4314
ag0
(g46
g2
Ntp4328
Rp4329
(dp4330
g12
I0
sg50
I0
sg14
I00
sg15
g51
sg52
I0
sg53
S'COF'
p4331
sg55
g56
sg19
g0
(g20
g2
Ntp4332
Rp4333
(dp4334
g24
S'COF'
p4335
sg26
I227878400
sg27
S'100'
p4336
sg28
S'COF'
p4337
sg30
S'OPT'
p4338
sg32
I00
sg33
Nsg35
g78
sg36
S'20160513'
p4339
sg37
S'USD'
p4340
sg39
S'COF   160513P00076500'
p4341
sg41
S'SMART'
p4342
sg43
F76.5
sbsg57
g4339
sg58
I0
sg59
g10
sg60
I0
sg61
I0
sg62
I0
sg63
I0
sg64
I01
sg65
I0
sg13
I572
sg66
F76.5
sbag4329
ag0
(g46
g2
Ntp4343
Rp4344
(dp4345
g12
I0
sg50
I0
sg14
I00
sg15
g51
sg52
I0
sg53
S'COF'
p4346
sg55
g56
sg19
g0
(g20
g2
Ntp4347
Rp4348
(dp4349
g24
S'COF'
p4350
sg26
I227878405
sg27
S'100'
p4351
sg28
S'COF'
p4352
sg30
S'OPT'
p4353
sg32
I00
sg33
Nsg35
g78
sg36
S'20160513'
p4354
sg37
S'USD'
p4355
sg39
S'COF   160513P00076000'
p4356
sg41
S'SMART'
p4357
sg43
F76.0
sbsg57
g4354
sg58
I0
sg59
g10
sg60
I0
sg61
I0
sg62
I0
sg63
I0
sg64
I01
sg65
I0
sg13
I574
sg66
F76.0
sbag4344
ag0
(g46
g2
Ntp4358
Rp4359
(dp4360
g12
I0
sg50
I0
sg14
I00
sg15
g51
sg52
I0
sg53
S'COF'
p4361
sg55
g56
sg19
g0
(g20
g2
Ntp4362
Rp4363
(dp4364
g24
S'COF'
p4365
sg26
I227878410
sg27
S'100'
p4366
sg28
S'COF'
p4367
sg30
S'OPT'
p4368
sg32
I00
sg33
Nsg35
g78
sg36
S'20160513'
p4369
sg37
S'USD'
p4370
sg39
S'COF   160513P00077000'
p4371
sg41
S'SMART'
p4372
sg43
F77.0
sbsg57
g4369
sg58
I0
sg59
g10
sg60
I0
sg61
I0
sg62
I0
sg63
I0
sg64
I01
sg65
I0
sg13
I576
sg66
F77.0
sbag4359
ag0
(g46
g2
Ntp4373
Rp4374
(dp4375
g12
I0
sg50
I0
sg14
I00
sg15
g51
sg52
I0
sg53
S'COF'
p4376
sg55
g56
sg19
g0
(g20
g2
Ntp4377
Rp4378
(dp4379
g24
S'COF'
p4380
sg26
I227878415
sg27
S'100'
p4381
sg28
S'COF'
p4382
sg30
S'OPT'
p4383
sg32
I00
sg33
Nsg35
g78
sg36
S'20160513'
p4384
sg37
S'USD'
p4385
sg39
S'COF   160513P00078000'
p4386
sg41
S'SMART'
p4387
sg43
F78.0
sbsg57
g4384
sg58
I0
sg59
g10
sg60
I0
sg61
I0
sg62
I0
sg63
I0
sg64
I01
sg65
I0
sg13
I578
sg66
F78.0
sbag4374
ag0
(g46
g2
Ntp4388
Rp4389
(dp4390
g12
I0
sg50
I0
sg14
I00
sg15
g51
sg52
I0
sg53
S'COF'
p4391
sg55
g56
sg19
g0
(g20
g2
Ntp4392
Rp4393
(dp4394
g24
S'COF'
p4395
sg26
I227878417
sg27
S'100'
p4396
sg28
S'COF'
p4397
sg30
S'OPT'
p4398
sg32
I00
sg33
Nsg35
g78
sg36
S'20160513'
p4399
sg37
S'USD'
p4400
sg39
S'COF   160513P00079000'
p4401
sg41
S'SMART'
p4402
sg43
F79.0
sbsg57
g4399
sg58
I0
sg59
g10
sg60
I0
sg61
I0
sg62
I0
sg63
I0
sg64
I01
sg65
I0
sg13
I580
sg66
F79.0
sbag4389
ag0
(g46
g2
Ntp4403
Rp4404
(dp4405
g12
I0
sg50
I0
sg14
I00
sg15
g51
sg52
I0
sg53
S'COF'
p4406
sg55
g56
sg19
g0
(g20
g2
Ntp4407
Rp4408
(dp4409
g24
S'COF'
p4410
sg26
I228249266
sg27
S'100'
p4411
sg28
S'COF'
p4412
sg30
S'OPT'
p4413
sg32
I00
sg33
Nsg35
g78
sg36
S'20160513'
p4414
sg37
S'USD'
p4415
sg39
S'COF   160513P00050000'
p4416
sg41
S'SMART'
p4417
sg43
F50.0
sbsg57
g4414
sg58
I0
sg59
g10
sg60
I0
sg61
I0
sg62
I0
sg63
I0
sg64
I01
sg65
I0
sg13
I582
sg66
F50.0
sbag4404
ag0
(g46
g2
Ntp4418
Rp4419
(dp4420
g12
I0
sg50
I0
sg14
I00
sg15
g51
sg52
I0
sg53
S'COF'
p4421
sg55
g56
sg19
g0
(g20
g2
Ntp4422
Rp4423
(dp4424
g24
S'COF'
p4425
sg26
I228249271
sg27
S'100'
p4426
sg28
S'COF'
p4427
sg30
S'OPT'
p4428
sg32
I00
sg33
Nsg35
g78
sg36
S'20160513'
p4429
sg37
S'USD'
p4430
sg39
S'COF   160513P00055000'
p4431
sg41
S'SMART'
p4432
sg43
F55.0
sbsg57
g4429
sg58
I0
sg59
g10
sg60
I0
sg61
I0
sg62
I0
sg63
I0
sg64
I01
sg65
I0
sg13
I584
sg66
F55.0
sbag4419
ag0
(g46
g2
Ntp4433
Rp4434
(dp4435
g12
I0
sg50
I0
sg14
I00
sg15
g51
sg52
I0
sg53
S'COF'
p4436
sg55
g56
sg19
g0
(g20
g2
Ntp4437
Rp4438
(dp4439
g24
S'COF'
p4440
sg26
I228249272
sg27
S'100'
p4441
sg28
S'COF'
p4442
sg30
S'OPT'
p4443
sg32
I00
sg33
Nsg35
g78
sg36
S'20160513'
p4444
sg37
S'USD'
p4445
sg39
S'COF   160513P00060000'
p4446
sg41
S'SMART'
p4447
sg43
F60.0
sbsg57
g4444
sg58
I0
sg59
g10
sg60
I0
sg61
I0
sg62
I0
sg63
I0
sg64
I01
sg65
I0
sg13
I586
sg66
F60.0
sbag4434
ag0
(g46
g2
Ntp4448
Rp4449
(dp4450
g12
I0
sg50
I0
sg14
I00
sg15
g51
sg52
I0
sg53
S'COF'
p4451
sg55
g56
sg19
g0
(g20
g2
Ntp4452
Rp4453
(dp4454
g24
S'COF'
p4455
sg26
I228249277
sg27
S'100'
p4456
sg28
S'COF'
p4457
sg30
S'OPT'
p4458
sg32
I00
sg33
Nsg35
g78
sg36
S'20160513'
p4459
sg37
S'USD'
p4460
sg39
S'COF   160513P00080000'
p4461
sg41
S'SMART'
p4462
sg43
F80.0
sbsg57
g4459
sg58
I0
sg59
g10
sg60
I0
sg61
I0
sg62
I0
sg63
I0
sg64
I01
sg65
I0
sg13
I588
sg66
F80.0
sbag4449
ag0
(g46
g2
Ntp4463
Rp4464
(dp4465
g12
I0
sg50
I0
sg14
I00
sg15
g51
sg52
I0
sg53
S'COF'
p4466
sg55
g56
sg19
g0
(g20
g2
Ntp4467
Rp4468
(dp4469
g24
S'COF'
p4470
sg26
I228650321
sg27
S'100'
p4471
sg28
S'COF'
p4472
sg30
S'OPT'
p4473
sg32
I00
sg33
Nsg35
g78
sg36
S'20160527'
p4474
sg37
S'USD'
p4475
sg39
S'COF   160527P00058000'
p4476
sg41
S'SMART'
p4477
sg43
F58.0
sbsg57
g4474
sg58
I0
sg59
g10
sg60
I0
sg61
I0
sg62
I0
sg63
I0
sg64
I01
sg65
I0
sg13
I590
sg66
F58.0
sbag4464
ag0
(g46
g2
Ntp4478
Rp4479
(dp4480
g12
I0
sg50
I0
sg14
I00
sg15
g51
sg52
I0
sg53
S'COF'
p4481
sg55
g56
sg19
g0
(g20
g2
Ntp4482
Rp4483
(dp4484
g24
S'COF'
p4485
sg26
I228650324
sg27
S'100'
p4486
sg28
S'COF'
p4487
sg30
S'OPT'
p4488
sg32
I00
sg33
Nsg35
g78
sg36
S'20160527'
p4489
sg37
S'USD'
p4490
sg39
S'COF   160527P00059000'
p4491
sg41
S'SMART'
p4492
sg43
F59.0
sbsg57
g4489
sg58
I0
sg59
g10
sg60
I0
sg61
I0
sg62
I0
sg63
I0
sg64
I01
sg65
I0
sg13
I592
sg66
F59.0
sbag4479
ag0
(g46
g2
Ntp4493
Rp4494
(dp4495
g12
I0
sg50
I0
sg14
I00
sg15
g51
sg52
I0
sg53
S'COF'
p4496
sg55
g56
sg19
g0
(g20
g2
Ntp4497
Rp4498
(dp4499
g24
S'COF'
p4500
sg26
I228650331
sg27
S'100'
p4501
sg28
S'COF'
p4502
sg30
S'OPT'
p4503
sg32
I00
sg33
Nsg35
g78
sg36
S'20160527'
p4504
sg37
S'USD'
p4505
sg39
S'COF   160527P00060000'
p4506
sg41
S'SMART'
p4507
sg43
F60.0
sbsg57
g4504
sg58
I0
sg59
g10
sg60
I0
sg61
I0
sg62
I0
sg63
I0
sg64
I01
sg65
I0
sg13
I594
sg66
F60.0
sbag4494
ag0
(g46
g2
Ntp4508
Rp4509
(dp4510
g12
I0
sg50
I0
sg14
I00
sg15
g51
sg52
I0
sg53
S'COF'
p4511
sg55
g56
sg19
g0
(g20
g2
Ntp4512
Rp4513
(dp4514
g24
S'COF'
p4515
sg26
I228650334
sg27
S'100'
p4516
sg28
S'COF'
p4517
sg30
S'OPT'
p4518
sg32
I00
sg33
Nsg35
g78
sg36
S'20160527'
p4519
sg37
S'USD'
p4520
sg39
S'COF   160527P00061500'
p4521
sg41
S'SMART'
p4522
sg43
F61.5
sbsg57
g4519
sg58
I0
sg59
g10
sg60
I0
sg61
I0
sg62
I0
sg63
I0
sg64
I01
sg65
I0
sg13
I596
sg66
F61.5
sbag4509
ag0
(g46
g2
Ntp4523
Rp4524
(dp4525
g12
I0
sg50
I0
sg14
I00
sg15
g51
sg52
I0
sg53
S'COF'
p4526
sg55
g56
sg19
g0
(g20
g2
Ntp4527
Rp4528
(dp4529
g24
S'COF'
p4530
sg26
I228650338
sg27
S'100'
p4531
sg28
S'COF'
p4532
sg30
S'OPT'
p4533
sg32
I00
sg33
Nsg35
g78
sg36
S'20160527'
p4534
sg37
S'USD'
p4535
sg39
S'COF   160527P00061000'
p4536
sg41
S'SMART'
p4537
sg43
F61.0
sbsg57
g4534
sg58
I0
sg59
g10
sg60
I0
sg61
I0
sg62
I0
sg63
I0
sg64
I01
sg65
I0
sg13
I598
sg66
F61.0
sbag4524
ag0
(g46
g2
Ntp4538
Rp4539
(dp4540
g12
I0
sg50
I0
sg14
I00
sg15
g51
sg52
I0
sg53
S'COF'
p4541
sg55
g56
sg19
g0
(g20
g2
Ntp4542
Rp4543
(dp4544
g24
S'COF'
p4545
sg26
I228650343
sg27
S'100'
p4546
sg28
S'COF'
p4547
sg30
S'OPT'
p4548
sg32
I00
sg33
Nsg35
g78
sg36
S'20160527'
p4549
sg37
S'USD'
p4550
sg39
S'COF   160527P00062500'
p4551
sg41
S'SMART'
p4552
sg43
F62.5
sbsg57
g4549
sg58
I0
sg59
g10
sg60
I0
sg61
I0
sg62
I0
sg63
I0
sg64
I01
sg65
I0
sg13
I600
sg66
F62.5
sbag4539
ag0
(g46
g2
Ntp4553
Rp4554
(dp4555
g12
I0
sg50
I0
sg14
I00
sg15
g51
sg52
I0
sg53
S'COF'
p4556
sg55
g56
sg19
g0
(g20
g2
Ntp4557
Rp4558
(dp4559
g24
S'COF'
p4560
sg26
I228650344
sg27
S'100'
p4561
sg28
S'COF'
p4562
sg30
S'OPT'
p4563
sg32
I00
sg33
Nsg35
g78
sg36
S'20160527'
p4564
sg37
S'USD'
p4565
sg39
S'COF   160527P00062000'
p4566
sg41
S'SMART'
p4567
sg43
F62.0
sbsg57
g4564
sg58
I0
sg59
g10
sg60
I0
sg61
I0
sg62
I0
sg63
I0
sg64
I01
sg65
I0
sg13
I602
sg66
F62.0
sbag4554
ag0
(g46
g2
Ntp4568
Rp4569
(dp4570
g12
I0
sg50
I0
sg14
I00
sg15
g51
sg52
I0
sg53
S'COF'
p4571
sg55
g56
sg19
g0
(g20
g2
Ntp4572
Rp4573
(dp4574
g24
S'COF'
p4575
sg26
I228650349
sg27
S'100'
p4576
sg28
S'COF'
p4577
sg30
S'OPT'
p4578
sg32
I00
sg33
Nsg35
g78
sg36
S'20160527'
p4579
sg37
S'USD'
p4580
sg39
S'COF   160527P00063500'
p4581
sg41
S'SMART'
p4582
sg43
F63.5
sbsg57
g4579
sg58
I0
sg59
g10
sg60
I0
sg61
I0
sg62
I0
sg63
I0
sg64
I01
sg65
I0
sg13
I604
sg66
F63.5
sbag4569
ag0
(g46
g2
Ntp4583
Rp4584
(dp4585
g12
I0
sg50
I0
sg14
I00
sg15
g51
sg52
I0
sg53
S'COF'
p4586
sg55
g56
sg19
g0
(g20
g2
Ntp4587
Rp4588
(dp4589
g24
S'COF'
p4590
sg26
I228650355
sg27
S'100'
p4591
sg28
S'COF'
p4592
sg30
S'OPT'
p4593
sg32
I00
sg33
Nsg35
g78
sg36
S'20160527'
p4594
sg37
S'USD'
p4595
sg39
S'COF   160527P00063000'
p4596
sg41
S'SMART'
p4597
sg43
F63.0
sbsg57
g4594
sg58
I0
sg59
g10
sg60
I0
sg61
I0
sg62
I0
sg63
I0
sg64
I01
sg65
I0
sg13
I606
sg66
F63.0
sbag4584
ag0
(g46
g2
Ntp4598
Rp4599
(dp4600
g12
I0
sg50
I0
sg14
I00
sg15
g51
sg52
I0
sg53
S'COF'
p4601
sg55
g56
sg19
g0
(g20
g2
Ntp4602
Rp4603
(dp4604
g24
S'COF'
p4605
sg26
I228650358
sg27
S'100'
p4606
sg28
S'COF'
p4607
sg30
S'OPT'
p4608
sg32
I00
sg33
Nsg35
g78
sg36
S'20160527'
p4609
sg37
S'USD'
p4610
sg39
S'COF   160527P00064500'
p4611
sg41
S'SMART'
p4612
sg43
F64.5
sbsg57
g4609
sg58
I0
sg59
g10
sg60
I0
sg61
I0
sg62
I0
sg63
I0
sg64
I01
sg65
I0
sg13
I608
sg66
F64.5
sbag4599
ag0
(g46
g2
Ntp4613
Rp4614
(dp4615
g12
I0
sg50
I0
sg14
I00
sg15
g51
sg52
I0
sg53
S'COF'
p4616
sg55
g56
sg19
g0
(g20
g2
Ntp4617
Rp4618
(dp4619
g24
S'COF'
p4620
sg26
I228650361
sg27
S'100'
p4621
sg28
S'COF'
p4622
sg30
S'OPT'
p4623
sg32
I00
sg33
Nsg35
g78
sg36
S'20160527'
p4624
sg37
S'USD'
p4625
sg39
S'COF   160527P00064000'
p4626
sg41
S'SMART'
p4627
sg43
F64.0
sbsg57
g4624
sg58
I0
sg59
g10
sg60
I0
sg61
I0
sg62
I0
sg63
I0
sg64
I01
sg65
I0
sg13
I610
sg66
F64.0
sbag4614
ag0
(g46
g2
Ntp4628
Rp4629
(dp4630
g12
I0
sg50
I0
sg14
I00
sg15
g51
sg52
I0
sg53
S'COF'
p4631
sg55
g56
sg19
g0
(g20
g2
Ntp4632
Rp4633
(dp4634
g24
S'COF'
p4635
sg26
I228650364
sg27
S'100'
p4636
sg28
S'COF'
p4637
sg30
S'OPT'
p4638
sg32
I00
sg33
Nsg35
g78
sg36
S'20160527'
p4639
sg37
S'USD'
p4640
sg39
S'COF   160527P00065500'
p4641
sg41
S'SMART'
p4642
sg43
F65.5
sbsg57
g4639
sg58
I0
sg59
g10
sg60
I0
sg61
I0
sg62
I0
sg63
I0
sg64
I01
sg65
I0
sg13
I612
sg66
F65.5
sbag4629
ag0
(g46
g2
Ntp4643
Rp4644
(dp4645
g12
I0
sg50
I0
sg14
I00
sg15
g51
sg52
I0
sg53
S'COF'
p4646
sg55
g56
sg19
g0
(g20
g2
Ntp4647
Rp4648
(dp4649
g24
S'COF'
p4650
sg26
I228650371
sg27
S'100'
p4651
sg28
S'COF'
p4652
sg30
S'OPT'
p4653
sg32
I00
sg33
Nsg35
g78
sg36
S'20160527'
p4654
sg37
S'USD'
p4655
sg39
S'COF   160527P00065000'
p4656
sg41
S'SMART'
p4657
sg43
F65.0
sbsg57
g4654
sg58
I0
sg59
g10
sg60
I0
sg61
I0
sg62
I0
sg63
I0
sg64
I01
sg65
I0
sg13
I614
sg66
F65.0
sbag4644
ag0
(g46
g2
Ntp4658
Rp4659
(dp4660
g12
I0
sg50
I0
sg14
I00
sg15
g51
sg52
I0
sg53
S'COF'
p4661
sg55
g56
sg19
g0
(g20
g2
Ntp4662
Rp4663
(dp4664
g24
S'COF'
p4665
sg26
I228650374
sg27
S'100'
p4666
sg28
S'COF'
p4667
sg30
S'OPT'
p4668
sg32
I00
sg33
Nsg35
g78
sg36
S'20160527'
p4669
sg37
S'USD'
p4670
sg39
S'COF   160527P00066500'
p4671
sg41
S'SMART'
p4672
sg43
F66.5
sbsg57
g4669
sg58
I0
sg59
g10
sg60
I0
sg61
I0
sg62
I0
sg63
I0
sg64
I01
sg65
I0
sg13
I616
sg66
F66.5
sbag4659
ag0
(g46
g2
Ntp4673
Rp4674
(dp4675
g12
I0
sg50
I0
sg14
I00
sg15
g51
sg52
I0
sg53
S'COF'
p4676
sg55
g56
sg19
g0
(g20
g2
Ntp4677
Rp4678
(dp4679
g24
S'COF'
p4680
sg26
I228650377
sg27
S'100'
p4681
sg28
S'COF'
p4682
sg30
S'OPT'
p4683
sg32
I00
sg33
Nsg35
g78
sg36
S'20160527'
p4684
sg37
S'USD'
p4685
sg39
S'COF   160527P00066000'
p4686
sg41
S'SMART'
p4687
sg43
F66.0
sbsg57
g4684
sg58
I0
sg59
g10
sg60
I0
sg61
I0
sg62
I0
sg63
I0
sg64
I01
sg65
I0
sg13
I618
sg66
F66.0
sbag4674
ag0
(g46
g2
Ntp4688
Rp4689
(dp4690
g12
I0
sg50
I0
sg14
I00
sg15
g51
sg52
I0
sg53
S'COF'
p4691
sg55
g56
sg19
g0
(g20
g2
Ntp4692
Rp4693
(dp4694
g24
S'COF'
p4695
sg26
I228650380
sg27
S'100'
p4696
sg28
S'COF'
p4697
sg30
S'OPT'
p4698
sg32
I00
sg33
Nsg35
g78
sg36
S'20160527'
p4699
sg37
S'USD'
p4700
sg39
S'COF   160527P00067500'
p4701
sg41
S'SMART'
p4702
sg43
F67.5
sbsg57
g4699
sg58
I0
sg59
g10
sg60
I0
sg61
I0
sg62
I0
sg63
I0
sg64
I01
sg65
I0
sg13
I620
sg66
F67.5
sbag4689
ag0
(g46
g2
Ntp4703
Rp4704
(dp4705
g12
I0
sg50
I0
sg14
I00
sg15
g51
sg52
I0
sg53
S'COF'
p4706
sg55
g56
sg19
g0
(g20
g2
Ntp4707
Rp4708
(dp4709
g24
S'COF'
p4710
sg26
I228650386
sg27
S'100'
p4711
sg28
S'COF'
p4712
sg30
S'OPT'
p4713
sg32
I00
sg33
Nsg35
g78
sg36
S'20160527'
p4714
sg37
S'USD'
p4715
sg39
S'COF   160527P00067000'
p4716
sg41
S'SMART'
p4717
sg43
F67.0
sbsg57
g4714
sg58
I0
sg59
g10
sg60
I0
sg61
I0
sg62
I0
sg63
I0
sg64
I01
sg65
I0
sg13
I622
sg66
F67.0
sbag4704
ag0
(g46
g2
Ntp4718
Rp4719
(dp4720
g12
I0
sg50
I0
sg14
I00
sg15
g51
sg52
I0
sg53
S'COF'
p4721
sg55
g56
sg19
g0
(g20
g2
Ntp4722
Rp4723
(dp4724
g24
S'COF'
p4725
sg26
I228650391
sg27
S'100'
p4726
sg28
S'COF'
p4727
sg30
S'OPT'
p4728
sg32
I00
sg33
Nsg35
g78
sg36
S'20160527'
p4729
sg37
S'USD'
p4730
sg39
S'COF   160527P00068500'
p4731
sg41
S'SMART'
p4732
sg43
F68.5
sbsg57
g4729
sg58
I0
sg59
g10
sg60
I0
sg61
I0
sg62
I0
sg63
I0
sg64
I01
sg65
I0
sg13
I624
sg66
F68.5
sbag4719
ag0
(g46
g2
Ntp4733
Rp4734
(dp4735
g12
I0
sg50
I0
sg14
I00
sg15
g51
sg52
I0
sg53
S'COF'
p4736
sg55
g56
sg19
g0
(g20
g2
Ntp4737
Rp4738
(dp4739
g24
S'COF'
p4740
sg26
I228650392
sg27
S'100'
p4741
sg28
S'COF'
p4742
sg30
S'OPT'
p4743
sg32
I00
sg33
Nsg35
g78
sg36
S'20160527'
p4744
sg37
S'USD'
p4745
sg39
S'COF   160527P00068000'
p4746
sg41
S'SMART'
p4747
sg43
F68.0
sbsg57
g4744
sg58
I0
sg59
g10
sg60
I0
sg61
I0
sg62
I0
sg63
I0
sg64
I01
sg65
I0
sg13
I626
sg66
F68.0
sbag4734
ag0
(g46
g2
Ntp4748
Rp4749
(dp4750
g12
I0
sg50
I0
sg14
I00
sg15
g51
sg52
I0
sg53
S'COF'
p4751
sg55
g56
sg19
g0
(g20
g2
Ntp4752
Rp4753
(dp4754
g24
S'COF'
p4755
sg26
I228650397
sg27
S'100'
p4756
sg28
S'COF'
p4757
sg30
S'OPT'
p4758
sg32
I00
sg33
Nsg35
g78
sg36
S'20160527'
p4759
sg37
S'USD'
p4760
sg39
S'COF   160527P00069500'
p4761
sg41
S'SMART'
p4762
sg43
F69.5
sbsg57
g4759
sg58
I0
sg59
g10
sg60
I0
sg61
I0
sg62
I0
sg63
I0
sg64
I01
sg65
I0
sg13
I628
sg66
F69.5
sbag4749
ag0
(g46
g2
Ntp4763
Rp4764
(dp4765
g12
I0
sg50
I0
sg14
I00
sg15
g51
sg52
I0
sg53
S'COF'
p4766
sg55
g56
sg19
g0
(g20
g2
Ntp4767
Rp4768
(dp4769
g24
S'COF'
p4770
sg26
I228650401
sg27
S'100'
p4771
sg28
S'COF'
p4772
sg30
S'OPT'
p4773
sg32
I00
sg33
Nsg35
g78
sg36
S'20160527'
p4774
sg37
S'USD'
p4775
sg39
S'COF   160527P00069000'
p4776
sg41
S'SMART'
p4777
sg43
F69.0
sbsg57
g4774
sg58
I0
sg59
g10
sg60
I0
sg61
I0
sg62
I0
sg63
I0
sg64
I01
sg65
I0
sg13
I630
sg66
F69.0
sbag4764
ag0
(g46
g2
Ntp4778
Rp4779
(dp4780
g12
I0
sg50
I0
sg14
I00
sg15
g51
sg52
I0
sg53
S'COF'
p4781
sg55
g56
sg19
g0
(g20
g2
Ntp4782
Rp4783
(dp4784
g24
S'COF'
p4785
sg26
I228650404
sg27
S'100'
p4786
sg28
S'COF'
p4787
sg30
S'OPT'
p4788
sg32
I00
sg33
Nsg35
g78
sg36
S'20160527'
p4789
sg37
S'USD'
p4790
sg39
S'COF   160527P00070500'
p4791
sg41
S'SMART'
p4792
sg43
F70.5
sbsg57
g4789
sg58
I0
sg59
g10
sg60
I0
sg61
I0
sg62
I0
sg63
I0
sg64
I01
sg65
I0
sg13
I632
sg66
F70.5
sbag4779
ag0
(g46
g2
Ntp4793
Rp4794
(dp4795
g12
I0
sg50
I0
sg14
I00
sg15
g51
sg52
I0
sg53
S'COF'
p4796
sg55
g56
sg19
g0
(g20
g2
Ntp4797
Rp4798
(dp4799
g24
S'COF'
p4800
sg26
I228650411
sg27
S'100'
p4801
sg28
S'COF'
p4802
sg30
S'OPT'
p4803
sg32
I00
sg33
Nsg35
g78
sg36
S'20160527'
p4804
sg37
S'USD'
p4805
sg39
S'COF   160527P00070000'
p4806
sg41
S'SMART'
p4807
sg43
F70.0
sbsg57
g4804
sg58
I0
sg59
g10
sg60
I0
sg61
I0
sg62
I0
sg63
I0
sg64
I01
sg65
I0
sg13
I634
sg66
F70.0
sbag4794
ag0
(g46
g2
Ntp4808
Rp4809
(dp4810
g12
I0
sg50
I0
sg14
I00
sg15
g51
sg52
I0
sg53
S'COF'
p4811
sg55
g56
sg19
g0
(g20
g2
Ntp4812
Rp4813
(dp4814
g24
S'COF'
p4815
sg26
I228650414
sg27
S'100'
p4816
sg28
S'COF'
p4817
sg30
S'OPT'
p4818
sg32
I00
sg33
Nsg35
g78
sg36
S'20160527'
p4819
sg37
S'USD'
p4820
sg39
S'COF   160527P00071500'
p4821
sg41
S'SMART'
p4822
sg43
F71.5
sbsg57
g4819
sg58
I0
sg59
g10
sg60
I0
sg61
I0
sg62
I0
sg63
I0
sg64
I01
sg65
I0
sg13
I636
sg66
F71.5
sbag4809
ag0
(g46
g2
Ntp4823
Rp4824
(dp4825
g12
I0
sg50
I0
sg14
I00
sg15
g51
sg52
I0
sg53
S'COF'
p4826
sg55
g56
sg19
g0
(g20
g2
Ntp4827
Rp4828
(dp4829
g24
S'COF'
p4830
sg26
I228650416
sg27
S'100'
p4831
sg28
S'COF'
p4832
sg30
S'OPT'
p4833
sg32
I00
sg33
Nsg35
g78
sg36
S'20160527'
p4834
sg37
S'USD'
p4835
sg39
S'COF   160527P00071000'
p4836
sg41
S'SMART'
p4837
sg43
F71.0
sbsg57
g4834
sg58
I0
sg59
g10
sg60
I0
sg61
I0
sg62
I0
sg63
I0
sg64
I01
sg65
I0
sg13
I638
sg66
F71.0
sbag4824
ag0
(g46
g2
Ntp4838
Rp4839
(dp4840
g12
I0
sg50
I0
sg14
I00
sg15
g51
sg52
I0
sg53
S'COF'
p4841
sg55
g56
sg19
g0
(g20
g2
Ntp4842
Rp4843
(dp4844
g24
S'COF'
p4845
sg26
I228650421
sg27
S'100'
p4846
sg28
S'COF'
p4847
sg30
S'OPT'
p4848
sg32
I00
sg33
Nsg35
g78
sg36
S'20160527'
p4849
sg37
S'USD'
p4850
sg39
S'COF   160527P00072500'
p4851
sg41
S'SMART'
p4852
sg43
F72.5
sbsg57
g4849
sg58
I0
sg59
g10
sg60
I0
sg61
I0
sg62
I0
sg63
I0
sg64
I01
sg65
I0
sg13
I640
sg66
F72.5
sbag4839
ag0
(g46
g2
Ntp4853
Rp4854
(dp4855
g12
I0
sg50
I0
sg14
I00
sg15
g51
sg52
I0
sg53
S'COF'
p4856
sg55
g56
sg19
g0
(g20
g2
Ntp4857
Rp4858
(dp4859
g24
S'COF'
p4860
sg26
I228650426
sg27
S'100'
p4861
sg28
S'COF'
p4862
sg30
S'OPT'
p4863
sg32
I00
sg33
Nsg35
g78
sg36
S'20160527'
p4864
sg37
S'USD'
p4865
sg39
S'COF   160527P00072000'
p4866
sg41
S'SMART'
p4867
sg43
F72.0
sbsg57
g4864
sg58
I0
sg59
g10
sg60
I0
sg61
I0
sg62
I0
sg63
I0
sg64
I01
sg65
I0
sg13
I642
sg66
F72.0
sbag4854
ag0
(g46
g2
Ntp4868
Rp4869
(dp4870
g12
I0
sg50
I0
sg14
I00
sg15
g51
sg52
I0
sg53
S'COF'
p4871
sg55
g56
sg19
g0
(g20
g2
Ntp4872
Rp4873
(dp4874
g24
S'COF'
p4875
sg26
I228650431
sg27
S'100'
p4876
sg28
S'COF'
p4877
sg30
S'OPT'
p4878
sg32
I00
sg33
Nsg35
g78
sg36
S'20160527'
p4879
sg37
S'USD'
p4880
sg39
S'COF   160527P00073500'
p4881
sg41
S'SMART'
p4882
sg43
F73.5
sbsg57
g4879
sg58
I0
sg59
g10
sg60
I0
sg61
I0
sg62
I0
sg63
I0
sg64
I01
sg65
I0
sg13
I644
sg66
F73.5
sbag4869
ag0
(g46
g2
Ntp4883
Rp4884
(dp4885
g12
I0
sg50
I0
sg14
I00
sg15
g51
sg52
I0
sg53
S'COF'
p4886
sg55
g56
sg19
g0
(g20
g2
Ntp4887
Rp4888
(dp4889
g24
S'COF'
p4890
sg26
I228650434
sg27
S'100'
p4891
sg28
S'COF'
p4892
sg30
S'OPT'
p4893
sg32
I00
sg33
Nsg35
g78
sg36
S'20160527'
p4894
sg37
S'USD'
p4895
sg39
S'COF   160527P00073000'
p4896
sg41
S'SMART'
p4897
sg43
F73.0
sbsg57
g4894
sg58
I0
sg59
g10
sg60
I0
sg61
I0
sg62
I0
sg63
I0
sg64
I01
sg65
I0
sg13
I646
sg66
F73.0
sbag4884
ag0
(g46
g2
Ntp4898
Rp4899
(dp4900
g12
I0
sg50
I0
sg14
I00
sg15
g51
sg52
I0
sg53
S'COF'
p4901
sg55
g56
sg19
g0
(g20
g2
Ntp4902
Rp4903
(dp4904
g24
S'COF'
p4905
sg26
I228650439
sg27
S'100'
p4906
sg28
S'COF'
p4907
sg30
S'OPT'
p4908
sg32
I00
sg33
Nsg35
g78
sg36
S'20160527'
p4909
sg37
S'USD'
p4910
sg39
S'COF   160527P00074500'
p4911
sg41
S'SMART'
p4912
sg43
F74.5
sbsg57
g4909
sg58
I0
sg59
g10
sg60
I0
sg61
I0
sg62
I0
sg63
I0
sg64
I01
sg65
I0
sg13
I648
sg66
F74.5
sbag4899
ag0
(g46
g2
Ntp4913
Rp4914
(dp4915
g12
I0
sg50
I0
sg14
I00
sg15
g51
sg52
I0
sg53
S'COF'
p4916
sg55
g56
sg19
g0
(g20
g2
Ntp4917
Rp4918
(dp4919
g24
S'COF'
p4920
sg26
I228650440
sg27
S'100'
p4921
sg28
S'COF'
p4922
sg30
S'OPT'
p4923
sg32
I00
sg33
Nsg35
g78
sg36
S'20160527'
p4924
sg37
S'USD'
p4925
sg39
S'COF   160527P00074000'
p4926
sg41
S'SMART'
p4927
sg43
F74.0
sbsg57
g4924
sg58
I0
sg59
g10
sg60
I0
sg61
I0
sg62
I0
sg63
I0
sg64
I01
sg65
I0
sg13
I650
sg66
F74.0
sbag4914
ag0
(g46
g2
Ntp4928
Rp4929
(dp4930
g12
I0
sg50
I0
sg14
I00
sg15
g51
sg52
I0
sg53
S'COF'
p4931
sg55
g56
sg19
g0
(g20
g2
Ntp4932
Rp4933
(dp4934
g24
S'COF'
p4935
sg26
I228650445
sg27
S'100'
p4936
sg28
S'COF'
p4937
sg30
S'OPT'
p4938
sg32
I00
sg33
Nsg35
g78
sg36
S'20160527'
p4939
sg37
S'USD'
p4940
sg39
S'COF   160527P00075500'
p4941
sg41
S'SMART'
p4942
sg43
F75.5
sbsg57
g4939
sg58
I0
sg59
g10
sg60
I0
sg61
I0
sg62
I0
sg63
I0
sg64
I01
sg65
I0
sg13
I652
sg66
F75.5
sbag4929
ag0
(g46
g2
Ntp4943
Rp4944
(dp4945
g12
I0
sg50
I0
sg14
I00
sg15
g51
sg52
I0
sg53
S'COF'
p4946
sg55
g56
sg19
g0
(g20
g2
Ntp4947
Rp4948
(dp4949
g24
S'COF'
p4950
sg26
I228650451
sg27
S'100'
p4951
sg28
S'COF'
p4952
sg30
S'OPT'
p4953
sg32
I00
sg33
Nsg35
g78
sg36
S'20160527'
p4954
sg37
S'USD'
p4955
sg39
S'COF   160527P00075000'
p4956
sg41
S'SMART'
p4957
sg43
F75.0
sbsg57
g4954
sg58
I0
sg59
g10
sg60
I0
sg61
I0
sg62
I0
sg63
I0
sg64
I01
sg65
I0
sg13
I654
sg66
F75.0
sbag4944
ag0
(g46
g2
Ntp4958
Rp4959
(dp4960
g12
I0
sg50
I0
sg14
I00
sg15
g51
sg52
I0
sg53
S'COF'
p4961
sg55
g56
sg19
g0
(g20
g2
Ntp4962
Rp4963
(dp4964
g24
S'COF'
p4965
sg26
I228650454
sg27
S'100'
p4966
sg28
S'COF'
p4967
sg30
S'OPT'
p4968
sg32
I00
sg33
Nsg35
g78
sg36
S'20160527'
p4969
sg37
S'USD'
p4970
sg39
S'COF   160527P00076000'
p4971
sg41
S'SMART'
p4972
sg43
F76.0
sbsg57
g4969
sg58
I0
sg59
g10
sg60
I0
sg61
I0
sg62
I0
sg63
I0
sg64
I01
sg65
I0
sg13
I656
sg66
F76.0
sbag4959
ag0
(g46
g2
Ntp4973
Rp4974
(dp4975
g12
I0
sg50
I0
sg14
I00
sg15
g51
sg52
I0
sg53
S'COF'
p4976
sg55
g56
sg19
g0
(g20
g2
Ntp4977
Rp4978
(dp4979
g24
S'COF'
p4980
sg26
I228650457
sg27
S'100'
p4981
sg28
S'COF'
p4982
sg30
S'OPT'
p4983
sg32
I00
sg33
Nsg35
g78
sg36
S'20160527'
p4984
sg37
S'USD'
p4985
sg39
S'COF   160527P00077000'
p4986
sg41
S'SMART'
p4987
sg43
F77.0
sbsg57
g4984
sg58
I0
sg59
g10
sg60
I0
sg61
I0
sg62
I0
sg63
I0
sg64
I01
sg65
I0
sg13
I658
sg66
F77.0
sbag4974
ag0
(g46
g2
Ntp4988
Rp4989
(dp4990
g12
I0
sg50
I0
sg14
I00
sg15
g51
sg52
I0
sg53
S'COF'
p4991
sg55
g56
sg19
g0
(g20
g2
Ntp4992
Rp4993
(dp4994
g24
S'COF'
p4995
sg26
I229380977
sg27
S'100'
p4996
sg28
S'COF'
p4997
sg30
S'OPT'
p4998
sg32
I00
sg33
Nsg35
g78
sg36
S'20160422'
p4999
sg37
S'USD'
p5000
sg39
S'COF   160422P00085000'
p5001
sg41
S'SMART'
p5002
sg43
F85.0
sbsg57
g4999
sg58
I0
sg59
g10
sg60
I0
sg61
I0
sg62
I0
sg63
I0
sg64
I01
sg65
I0
sg13
I660
sg66
F85.0
sbag4989
ag0
(g46
g2
Ntp5003
Rp5004
(dp5005
g12
I0
sg50
I0
sg14
I00
sg15
g51
sg52
I0
sg53
S'COF'
p5006
sg55
g56
sg19
g0
(g20
g2
Ntp5007
Rp5008
(dp5009
g24
S'COF'
p5010
sg26
I229380980
sg27
S'100'
p5011
sg28
S'COF'
p5012
sg30
S'OPT'
p5013
sg32
I00
sg33
Nsg35
g78
sg36
S'20160422'
p5014
sg37
S'USD'
p5015
sg39
S'COF   160422P00090000'
p5016
sg41
S'SMART'
p5017
sg43
F90.0
sbsg57
g5014
sg58
I0
sg59
g10
sg60
I0
sg61
I0
sg62
I0
sg63
I0
sg64
I01
sg65
I0
sg13
I662
sg66
F90.0
sbag5004
ag0
(g46
g2
Ntp5018
Rp5019
(dp5020
g12
I0
sg50
I0
sg14
I00
sg15
g51
sg52
I0
sg53
S'COF'
p5021
sg55
g56
sg19
g0
(g20
g2
Ntp5022
Rp5023
(dp5024
g24
S'COF'
p5025
sg26
I229380987
sg27
S'100'
p5026
sg28
S'COF'
p5027
sg30
S'OPT'
p5028
sg32
I00
sg33
Nsg35
g78
sg36
S'20160422'
p5029
sg37
S'USD'
p5030
sg39
S'COF   160422P00095000'
p5031
sg41
S'SMART'
p5032
sg43
F95.0
sbsg57
g5029
sg58
I0
sg59
g10
sg60
I0
sg61
I0
sg62
I0
sg63
I0
sg64
I01
sg65
I0
sg13
I664
sg66
F95.0
sbag5019
ag0
(g46
g2
Ntp5033
Rp5034
(dp5035
g12
I0
sg50
I0
sg14
I00
sg15
g51
sg52
I0
sg53
S'COF'
p5036
sg55
g56
sg19
g0
(g20
g2
Ntp5037
Rp5038
(dp5039
g24
S'COF'
p5040
sg26
I229381003
sg27
S'100'
p5041
sg28
S'COF'
p5042
sg30
S'OPT'
p5043
sg32
I00
sg33
Nsg35
g78
sg36
S'20160527'
p5044
sg37
S'USD'
p5045
sg39
S'COF   160527P00078000'
p5046
sg41
S'SMART'
p5047
sg43
F78.0
sbsg57
g5044
sg58
I0
sg59
g10
sg60
I0
sg61
I0
sg62
I0
sg63
I0
sg64
I01
sg65
I0
sg13
I666
sg66
F78.0
sbag5034
ag0
(g46
g2
Ntp5048
Rp5049
(dp5050
g12
I0
sg50
I0
sg14
I00
sg15
g51
sg52
I0
sg53
S'COF'
p5051
sg55
g56
sg19
g0
(g20
g2
Ntp5052
Rp5053
(dp5054
g24
S'COF'
p5055
sg26
I229381006
sg27
S'100'
p5056
sg28
S'COF'
p5057
sg30
S'OPT'
p5058
sg32
I00
sg33
Nsg35
g78
sg36
S'20160527'
p5059
sg37
S'USD'
p5060
sg39
S'COF   160527P00079000'
p5061
sg41
S'SMART'
p5062
sg43
F79.0
sbsg57
g5059
sg58
I0
sg59
g10
sg60
I0
sg61
I0
sg62
I0
sg63
I0
sg64
I01
sg65
I0
sg13
I668
sg66
F79.0
sbag5049
ag0
(g46
g2
Ntp5063
Rp5064
(dp5065
g12
I0
sg50
I0
sg14
I00
sg15
g51
sg52
I0
sg53
S'COF'
p5066
sg55
g56
sg19
g0
(g20
g2
Ntp5067
Rp5068
(dp5069
g24
S'COF'
p5070
sg26
I229381008
sg27
S'100'
p5071
sg28
S'COF'
p5072
sg30
S'OPT'
p5073
sg32
I00
sg33
Nsg35
g78
sg36
S'20160527'
p5074
sg37
S'USD'
p5075
sg39
S'COF   160527P00080000'
p5076
sg41
S'SMART'
p5077
sg43
F80.0
sbsg57
g5074
sg58
I0
sg59
g10
sg60
I0
sg61
I0
sg62
I0
sg63
I0
sg64
I01
sg65
I0
sg13
I670
sg66
F80.0
sbag5064
ag0
(g46
g2
Ntp5078
Rp5079
(dp5080
g12
I0
sg50
I0
sg14
I00
sg15
g51
sg52
I0
sg53
S'COF'
p5081
sg55
g56
sg19
g0
(g20
g2
Ntp5082
Rp5083
(dp5084
g24
S'COF'
p5085
sg26
I229906375
sg27
S'100'
p5086
sg28
S'COF'
p5087
sg30
S'OPT'
p5088
sg32
I00
sg33
Nsg35
g78
sg36
S'20160520'
p5089
sg37
S'USD'
p5090
sg39
S'COF   160520P00058000'
p5091
sg41
S'SMART'
p5092
sg43
F58.0
sbsg57
g5089
sg58
I0
sg59
g10
sg60
I0
sg61
I0
sg62
I0
sg63
I0
sg64
I01
sg65
I0
sg13
I672
sg66
F58.0
sbag5079
ag0
(g46
g2
Ntp5093
Rp5094
(dp5095
g12
I0
sg50
I0
sg14
I00
sg15
g51
sg52
I0
sg53
S'COF'
p5096
sg55
g56
sg19
g0
(g20
g2
Ntp5097
Rp5098
(dp5099
g24
S'COF'
p5100
sg26
I229906376
sg27
S'100'
p5101
sg28
S'COF'
p5102
sg30
S'OPT'
p5103
sg32
I00
sg33
Nsg35
g78
sg36
S'20160520'
p5104
sg37
S'USD'
p5105
sg39
S'COF   160520P00059000'
p5106
sg41
S'SMART'
p5107
sg43
F59.0
sbsg57
g5104
sg58
I0
sg59
g10
sg60
I0
sg61
I0
sg62
I0
sg63
I0
sg64
I01
sg65
I0
sg13
I674
sg66
F59.0
sbag5094
ag0
(g46
g2
Ntp5108
Rp5109
(dp5110
g12
I0
sg50
I0
sg14
I00
sg15
g51
sg52
I0
sg53
S'COF'
p5111
sg55
g56
sg19
g0
(g20
g2
Ntp5112
Rp5113
(dp5114
g24
S'COF'
p5115
sg26
I229906381
sg27
S'100'
p5116
sg28
S'COF'
p5117
sg30
S'OPT'
p5118
sg32
I00
sg33
Nsg35
g78
sg36
S'20160520'
p5119
sg37
S'USD'
p5120
sg39
S'COF   160520P00061500'
p5121
sg41
S'SMART'
p5122
sg43
F61.5
sbsg57
g5119
sg58
I0
sg59
g10
sg60
I0
sg61
I0
sg62
I0
sg63
I0
sg64
I01
sg65
I0
sg13
I676
sg66
F61.5
sbag5109
ag0
(g46
g2
Ntp5123
Rp5124
(dp5125
g12
I0
sg50
I0
sg14
I00
sg15
g51
sg52
I0
sg53
S'COF'
p5126
sg55
g56
sg19
g0
(g20
g2
Ntp5127
Rp5128
(dp5129
g24
S'COF'
p5130
sg26
I229906387
sg27
S'100'
p5131
sg28
S'COF'
p5132
sg30
S'OPT'
p5133
sg32
I00
sg33
Nsg35
g78
sg36
S'20160520'
p5134
sg37
S'USD'
p5135
sg39
S'COF   160520P00061000'
p5136
sg41
S'SMART'
p5137
sg43
F61.0
sbsg57
g5134
sg58
I0
sg59
g10
sg60
I0
sg61
I0
sg62
I0
sg63
I0
sg64
I01
sg65
I0
sg13
I678
sg66
F61.0
sbag5124
ag0
(g46
g2
Ntp5138
Rp5139
(dp5140
g12
I0
sg50
I0
sg14
I00
sg15
g51
sg52
I0
sg53
S'COF'
p5141
sg55
g56
sg19
g0
(g20
g2
Ntp5142
Rp5143
(dp5144
g24
S'COF'
p5145
sg26
I229906390
sg27
S'100'
p5146
sg28
S'COF'
p5147
sg30
S'OPT'
p5148
sg32
I00
sg33
Nsg35
g78
sg36
S'20160520'
p5149
sg37
S'USD'
p5150
sg39
S'COF   160520P00062000'
p5151
sg41
S'SMART'
p5152
sg43
F62.0
sbsg57
g5149
sg58
I0
sg59
g10
sg60
I0
sg61
I0
sg62
I0
sg63
I0
sg64
I01
sg65
I0
sg13
I680
sg66
F62.0
sbag5139
ag0
(g46
g2
Ntp5153
Rp5154
(dp5155
g12
I0
sg50
I0
sg14
I00
sg15
g51
sg52
I0
sg53
S'COF'
p5156
sg55
g56
sg19
g0
(g20
g2
Ntp5157
Rp5158
(dp5159
g24
S'COF'
p5160
sg26
I229906393
sg27
S'100'
p5161
sg28
S'COF'
p5162
sg30
S'OPT'
p5163
sg32
I00
sg33
Nsg35
g78
sg36
S'20160520'
p5164
sg37
S'USD'
p5165
sg39
S'COF   160520P00063500'
p5166
sg41
S'SMART'
p5167
sg43
F63.5
sbsg57
g5164
sg58
I0
sg59
g10
sg60
I0
sg61
I0
sg62
I0
sg63
I0
sg64
I01
sg65
I0
sg13
I682
sg66
F63.5
sbag5154
ag0
(g46
g2
Ntp5168
Rp5169
(dp5170
g12
I0
sg50
I0
sg14
I00
sg15
g51
sg52
I0
sg53
S'COF'
p5171
sg55
g56
sg19
g0
(g20
g2
Ntp5172
Rp5173
(dp5174
g24
S'COF'
p5175
sg26
I229906396
sg27
S'100'
p5176
sg28
S'COF'
p5177
sg30
S'OPT'
p5178
sg32
I00
sg33
Nsg35
g78
sg36
S'20160520'
p5179
sg37
S'USD'
p5180
sg39
S'COF   160520P00063000'
p5181
sg41
S'SMART'
p5182
sg43
F63.0
sbsg57
g5179
sg58
I0
sg59
g10
sg60
I0
sg61
I0
sg62
I0
sg63
I0
sg64
I01
sg65
I0
sg13
I684
sg66
F63.0
sbag5169
ag0
(g46
g2
Ntp5183
Rp5184
(dp5185
g12
I0
sg50
I0
sg14
I00
sg15
g51
sg52
I0
sg53
S'COF'
p5186
sg55
g56
sg19
g0
(g20
g2
Ntp5187
Rp5188
(dp5189
g24
S'COF'
p5190
sg26
I229906400
sg27
S'100'
p5191
sg28
S'COF'
p5192
sg30
S'OPT'
p5193
sg32
I00
sg33
Nsg35
g78
sg36
S'20160520'
p5194
sg37
S'USD'
p5195
sg39
S'COF   160520P00064500'
p5196
sg41
S'SMART'
p5197
sg43
F64.5
sbsg57
g5194
sg58
I0
sg59
g10
sg60
I0
sg61
I0
sg62
I0
sg63
I0
sg64
I01
sg65
I0
sg13
I686
sg66
F64.5
sbag5184
ag0
(g46
g2
Ntp5198
Rp5199
(dp5200
g12
I0
sg50
I0
sg14
I00
sg15
g51
sg52
I0
sg53
S'COF'
p5201
sg55
g56
sg19
g0
(g20
g2
Ntp5202
Rp5203
(dp5204
g24
S'COF'
p5205
sg26
I229906405
sg27
S'100'
p5206
sg28
S'COF'
p5207
sg30
S'OPT'
p5208
sg32
I00
sg33
Nsg35
g78
sg36
S'20160520'
p5209
sg37
S'USD'
p5210
sg39
S'COF   160520P00064000'
p5211
sg41
S'SMART'
p5212
sg43
F64.0
sbsg57
g5209
sg58
I0
sg59
g10
sg60
I0
sg61
I0
sg62
I0
sg63
I0
sg64
I01
sg65
I0
sg13
I688
sg66
F64.0
sbag5199
ag0
(g46
g2
Ntp5213
Rp5214
(dp5215
g12
I0
sg50
I0
sg14
I00
sg15
g51
sg52
I0
sg53
S'COF'
p5216
sg55
g56
sg19
g0
(g20
g2
Ntp5217
Rp5218
(dp5219
g24
S'COF'
p5220
sg26
I229906410
sg27
S'100'
p5221
sg28
S'COF'
p5222
sg30
S'OPT'
p5223
sg32
I00
sg33
Nsg35
g78
sg36
S'20160520'
p5224
sg37
S'USD'
p5225
sg39
S'COF   160520P00065500'
p5226
sg41
S'SMART'
p5227
sg43
F65.5
sbsg57
g5224
sg58
I0
sg59
g10
sg60
I0
sg61
I0
sg62
I0
sg63
I0
sg64
I01
sg65
I0
sg13
I690
sg66
F65.5
sbag5214
ag0
(g46
g2
Ntp5228
Rp5229
(dp5230
g12
I0
sg50
I0
sg14
I00
sg15
g51
sg52
I0
sg53
S'COF'
p5231
sg55
g56
sg19
g0
(g20
g2
Ntp5232
Rp5233
(dp5234
g24
S'COF'
p5235
sg26
I229906415
sg27
S'100'
p5236
sg28
S'COF'
p5237
sg30
S'OPT'
p5238
sg32
I00
sg33
Nsg35
g78
sg36
S'20160520'
p5239
sg37
S'USD'
p5240
sg39
S'COF   160520P00066500'
p5241
sg41
S'SMART'
p5242
sg43
F66.5
sbsg57
g5239
sg58
I0
sg59
g10
sg60
I0
sg61
I0
sg62
I0
sg63
I0
sg64
I01
sg65
I0
sg13
I692
sg66
F66.5
sbag5229
ag0
(g46
g2
Ntp5243
Rp5244
(dp5245
g12
I0
sg50
I0
sg14
I00
sg15
g51
sg52
I0
sg53
S'COF'
p5246
sg55
g56
sg19
g0
(g20
g2
Ntp5247
Rp5248
(dp5249
g24
S'COF'
p5250
sg26
I229906417
sg27
S'100'
p5251
sg28
S'COF'
p5252
sg30
S'OPT'
p5253
sg32
I00
sg33
Nsg35
g78
sg36
S'20160520'
p5254
sg37
S'USD'
p5255
sg39
S'COF   160520P00066000'
p5256
sg41
S'SMART'
p5257
sg43
F66.0
sbsg57
g5254
sg58
I0
sg59
g10
sg60
I0
sg61
I0
sg62
I0
sg63
I0
sg64
I01
sg65
I0
sg13
I694
sg66
F66.0
sbag5244
ag0
(g46
g2
Ntp5258
Rp5259
(dp5260
g12
I0
sg50
I0
sg14
I00
sg15
g51
sg52
I0
sg53
S'COF'
p5261
sg55
g56
sg19
g0
(g20
g2
Ntp5262
Rp5263
(dp5264
g24
S'COF'
p5265
sg26
I229906420
sg27
S'100'
p5266
sg28
S'COF'
p5267
sg30
S'OPT'
p5268
sg32
I00
sg33
Nsg35
g78
sg36
S'20160520'
p5269
sg37
S'USD'
p5270
sg39
S'COF   160520P00067000'
p5271
sg41
S'SMART'
p5272
sg43
F67.0
sbsg57
g5269
sg58
I0
sg59
g10
sg60
I0
sg61
I0
sg62
I0
sg63
I0
sg64
I01
sg65
I0
sg13
I696
sg66
F67.0
sbag5259
ag0
(g46
g2
Ntp5273
Rp5274
(dp5275
g12
I0
sg50
I0
sg14
I00
sg15
g51
sg52
I0
sg53
S'COF'
p5276
sg55
g56
sg19
g0
(g20
g2
Ntp5277
Rp5278
(dp5279
g24
S'COF'
p5280
sg26
I229906427
sg27
S'100'
p5281
sg28
S'COF'
p5282
sg30
S'OPT'
p5283
sg32
I00
sg33
Nsg35
g78
sg36
S'20160520'
p5284
sg37
S'USD'
p5285
sg39
S'COF   160520P00068500'
p5286
sg41
S'SMART'
p5287
sg43
F68.5
sbsg57
g5284
sg58
I0
sg59
g10
sg60
I0
sg61
I0
sg62
I0
sg63
I0
sg64
I01
sg65
I0
sg13
I698
sg66
F68.5
sbag5274
ag0
(g46
g2
Ntp5288
Rp5289
(dp5290
g12
I0
sg50
I0
sg14
I00
sg15
g51
sg52
I0
sg53
S'COF'
p5291
sg55
g56
sg19
g0
(g20
g2
Ntp5292
Rp5293
(dp5294
g24
S'COF'
p5295
sg26
I229906430
sg27
S'100'
p5296
sg28
S'COF'
p5297
sg30
S'OPT'
p5298
sg32
I00
sg33
Nsg35
g78
sg36
S'20160520'
p5299
sg37
S'USD'
p5300
sg39
S'COF   160520P00068000'
p5301
sg41
S'SMART'
p5302
sg43
F68.0
sbsg57
g5299
sg58
I0
sg59
g10
sg60
I0
sg61
I0
sg62
I0
sg63
I0
sg64
I01
sg65
I0
sg13
I700
sg66
F68.0
sbag5289
ag0
(g46
g2
Ntp5303
Rp5304
(dp5305
g12
I0
sg50
I0
sg14
I00
sg15
g51
sg52
I0
sg53
S'COF'
p5306
sg55
g56
sg19
g0
(g20
g2
Ntp5307
Rp5308
(dp5309
g24
S'COF'
p5310
sg26
I229906433
sg27
S'100'
p5311
sg28
S'COF'
p5312
sg30
S'OPT'
p5313
sg32
I00
sg33
Nsg35
g78
sg36
S'20160520'
p5314
sg37
S'USD'
p5315
sg39
S'COF   160520P00069500'
p5316
sg41
S'SMART'
p5317
sg43
F69.5
sbsg57
g5314
sg58
I0
sg59
g10
sg60
I0
sg61
I0
sg62
I0
sg63
I0
sg64
I01
sg65
I0
sg13
I702
sg66
F69.5
sbag5304
ag0
(g46
g2
Ntp5318
Rp5319
(dp5320
g12
I0
sg50
I0
sg14
I00
sg15
g51
sg52
I0
sg53
S'COF'
p5321
sg55
g56
sg19
g0
(g20
g2
Ntp5322
Rp5323
(dp5324
g24
S'COF'
p5325
sg26
I229906436
sg27
S'100'
p5326
sg28
S'COF'
p5327
sg30
S'OPT'
p5328
sg32
I00
sg33
Nsg35
g78
sg36
S'20160520'
p5329
sg37
S'USD'
p5330
sg39
S'COF   160520P00069000'
p5331
sg41
S'SMART'
p5332
sg43
F69.0
sbsg57
g5329
sg58
I0
sg59
g10
sg60
I0
sg61
I0
sg62
I0
sg63
I0
sg64
I01
sg65
I0
sg13
I704
sg66
F69.0
sbag5319
ag0
(g46
g2
Ntp5333
Rp5334
(dp5335
g12
I0
sg50
I0
sg14
I00
sg15
g51
sg52
I0
sg53
S'COF'
p5336
sg55
g56
sg19
g0
(g20
g2
Ntp5337
Rp5338
(dp5339
g24
S'COF'
p5340
sg26
I229906443
sg27
S'100'
p5341
sg28
S'COF'
p5342
sg30
S'OPT'
p5343
sg32
I00
sg33
Nsg35
g78
sg36
S'20160520'
p5344
sg37
S'USD'
p5345
sg39
S'COF   160520P00070500'
p5346
sg41
S'SMART'
p5347
sg43
F70.5
sbsg57
g5344
sg58
I0
sg59
g10
sg60
I0
sg61
I0
sg62
I0
sg63
I0
sg64
I01
sg65
I0
sg13
I706
sg66
F70.5
sbag5334
ag0
(g46
g2
Ntp5348
Rp5349
(dp5350
g12
I0
sg50
I0
sg14
I00
sg15
g51
sg52
I0
sg53
S'COF'
p5351
sg55
g56
sg19
g0
(g20
g2
Ntp5352
Rp5353
(dp5354
g24
S'COF'
p5355
sg26
I229906446
sg27
S'100'
p5356
sg28
S'COF'
p5357
sg30
S'OPT'
p5358
sg32
I00
sg33
Nsg35
g78
sg36
S'20160520'
p5359
sg37
S'USD'
p5360
sg39
S'COF   160520P00071500'
p5361
sg41
S'SMART'
p5362
sg43
F71.5
sbsg57
g5359
sg58
I0
sg59
g10
sg60
I0
sg61
I0
sg62
I0
sg63
I0
sg64
I01
sg65
I0
sg13
I708
sg66
F71.5
sbag5349
ag0
(g46
g2
Ntp5363
Rp5364
(dp5365
g12
I0
sg50
I0
sg14
I00
sg15
g51
sg52
I0
sg53
S'COF'
p5366
sg55
g56
sg19
g0
(g20
g2
Ntp5367
Rp5368
(dp5369
g24
S'COF'
p5370
sg26
I229906448
sg27
S'100'
p5371
sg28
S'COF'
p5372
sg30
S'OPT'
p5373
sg32
I00
sg33
Nsg35
g78
sg36
S'20160520'
p5374
sg37
S'USD'
p5375
sg39
S'COF   160520P00071000'
p5376
sg41
S'SMART'
p5377
sg43
F71.0
sbsg57
g5374
sg58
I0
sg59
g10
sg60
I0
sg61
I0
sg62
I0
sg63
I0
sg64
I01
sg65
I0
sg13
I710
sg66
F71.0
sbag5364
ag0
(g46
g2
Ntp5378
Rp5379
(dp5380
g12
I0
sg50
I0
sg14
I00
sg15
g51
sg52
I0
sg53
S'COF'
p5381
sg55
g56
sg19
g0
(g20
g2
Ntp5382
Rp5383
(dp5384
g24
S'COF'
p5385
sg26
I229906453
sg27
S'100'
p5386
sg28
S'COF'
p5387
sg30
S'OPT'
p5388
sg32
I00
sg33
Nsg35
g78
sg36
S'20160520'
p5389
sg37
S'USD'
p5390
sg39
S'COF   160520P00072000'
p5391
sg41
S'SMART'
p5392
sg43
F72.0
sbsg57
g5389
sg58
I0
sg59
g10
sg60
I0
sg61
I0
sg62
I0
sg63
I0
sg64
I01
sg65
I0
sg13
I712
sg66
F72.0
sbag5379
ag0
(g46
g2
Ntp5393
Rp5394
(dp5395
g12
I0
sg50
I0
sg14
I00
sg15
g51
sg52
I0
sg53
S'COF'
p5396
sg55
g56
sg19
g0
(g20
g2
Ntp5397
Rp5398
(dp5399
g24
S'COF'
p5400
sg26
I229906458
sg27
S'100'
p5401
sg28
S'COF'
p5402
sg30
S'OPT'
p5403
sg32
I00
sg33
Nsg35
g78
sg36
S'20160520'
p5404
sg37
S'USD'
p5405
sg39
S'COF   160520P00073500'
p5406
sg41
S'SMART'
p5407
sg43
F73.5
sbsg57
g5404
sg58
I0
sg59
g10
sg60
I0
sg61
I0
sg62
I0
sg63
I0
sg64
I01
sg65
I0
sg13
I714
sg66
F73.5
sbag5394
ag0
(g46
g2
Ntp5408
Rp5409
(dp5410
g12
I0
sg50
I0
sg14
I00
sg15
g51
sg52
I0
sg53
S'COF'
p5411
sg55
g56
sg19
g0
(g20
g2
Ntp5412
Rp5413
(dp5414
g24
S'COF'
p5415
sg26
I229906463
sg27
S'100'
p5416
sg28
S'COF'
p5417
sg30
S'OPT'
p5418
sg32
I00
sg33
Nsg35
g78
sg36
S'20160520'
p5419
sg37
S'USD'
p5420
sg39
S'COF   160520P00073000'
p5421
sg41
S'SMART'
p5422
sg43
F73.0
sbsg57
g5419
sg58
I0
sg59
g10
sg60
I0
sg61
I0
sg62
I0
sg63
I0
sg64
I01
sg65
I0
sg13
I716
sg66
F73.0
sbag5409
ag0
(g46
g2
Ntp5423
Rp5424
(dp5425
g12
I0
sg50
I0
sg14
I00
sg15
g51
sg52
I0
sg53
S'COF'
p5426
sg55
g56
sg19
g0
(g20
g2
Ntp5427
Rp5428
(dp5429
g24
S'COF'
p5430
sg26
I229906467
sg27
S'100'
p5431
sg28
S'COF'
p5432
sg30
S'OPT'
p5433
sg32
I00
sg33
Nsg35
g78
sg36
S'20160520'
p5434
sg37
S'USD'
p5435
sg39
S'COF   160520P00074500'
p5436
sg41
S'SMART'
p5437
sg43
F74.5
sbsg57
g5434
sg58
I0
sg59
g10
sg60
I0
sg61
I0
sg62
I0
sg63
I0
sg64
I01
sg65
I0
sg13
I718
sg66
F74.5
sbag5424
ag0
(g46
g2
Ntp5438
Rp5439
(dp5440
g12
I0
sg50
I0
sg14
I00
sg15
g51
sg52
I0
sg53
S'COF'
p5441
sg55
g56
sg19
g0
(g20
g2
Ntp5442
Rp5443
(dp5444
g24
S'COF'
p5445
sg26
I229906470
sg27
S'100'
p5446
sg28
S'COF'
p5447
sg30
S'OPT'
p5448
sg32
I00
sg33
Nsg35
g78
sg36
S'20160520'
p5449
sg37
S'USD'
p5450
sg39
S'COF   160520P00074000'
p5451
sg41
S'SMART'
p5452
sg43
F74.0
sbsg57
g5449
sg58
I0
sg59
g10
sg60
I0
sg61
I0
sg62
I0
sg63
I0
sg64
I01
sg65
I0
sg13
I720
sg66
F74.0
sbag5439
ag0
(g46
g2
Ntp5453
Rp5454
(dp5455
g12
I0
sg50
I0
sg14
I00
sg15
g51
sg52
I0
sg53
S'COF'
p5456
sg55
g56
sg19
g0
(g20
g2
Ntp5457
Rp5458
(dp5459
g24
S'COF'
p5460
sg26
I229906473
sg27
S'100'
p5461
sg28
S'COF'
p5462
sg30
S'OPT'
p5463
sg32
I00
sg33
Nsg35
g78
sg36
S'20160520'
p5464
sg37
S'USD'
p5465
sg39
S'COF   160520P00075500'
p5466
sg41
S'SMART'
p5467
sg43
F75.5
sbsg57
g5464
sg58
I0
sg59
g10
sg60
I0
sg61
I0
sg62
I0
sg63
I0
sg64
I01
sg65
I0
sg13
I722
sg66
F75.5
sbag5454
ag0
(g46
g2
Ntp5468
Rp5469
(dp5470
g12
I0
sg50
I0
sg14
I00
sg15
g51
sg52
I0
sg53
S'COF'
p5471
sg55
g56
sg19
g0
(g20
g2
Ntp5472
Rp5473
(dp5474
g24
S'COF'
p5475
sg26
I229906476
sg27
S'100'
p5476
sg28
S'COF'
p5477
sg30
S'OPT'
p5478
sg32
I00
sg33
Nsg35
g78
sg36
S'20160520'
p5479
sg37
S'USD'
p5480
sg39
S'COF   160520P00076500'
p5481
sg41
S'SMART'
p5482
sg43
F76.5
sbsg57
g5479
sg58
I0
sg59
g10
sg60
I0
sg61
I0
sg62
I0
sg63
I0
sg64
I01
sg65
I0
sg13
I724
sg66
F76.5
sbag5469
ag0
(g46
g2
Ntp5483
Rp5484
(dp5485
g12
I0
sg50
I0
sg14
I00
sg15
g51
sg52
I0
sg53
S'COF'
p5486
sg55
g56
sg19
g0
(g20
g2
Ntp5487
Rp5488
(dp5489
g24
S'COF'
p5490
sg26
I229906482
sg27
S'100'
p5491
sg28
S'COF'
p5492
sg30
S'OPT'
p5493
sg32
I00
sg33
Nsg35
g78
sg36
S'20160520'
p5494
sg37
S'USD'
p5495
sg39
S'COF   160520P00076000'
p5496
sg41
S'SMART'
p5497
sg43
F76.0
sbsg57
g5494
sg58
I0
sg59
g10
sg60
I0
sg61
I0
sg62
I0
sg63
I0
sg64
I01
sg65
I0
sg13
I726
sg66
F76.0
sbag5484
ag0
(g46
g2
Ntp5498
Rp5499
(dp5500
g12
I0
sg50
I0
sg14
I00
sg15
g51
sg52
I0
sg53
S'COF'
p5501
sg55
g56
sg19
g0
(g20
g2
Ntp5502
Rp5503
(dp5504
g24
S'COF'
p5505
sg26
I229906487
sg27
S'100'
p5506
sg28
S'COF'
p5507
sg30
S'OPT'
p5508
sg32
I00
sg33
Nsg35
g78
sg36
S'20160520'
p5509
sg37
S'USD'
p5510
sg39
S'COF   160520P00077000'
p5511
sg41
S'SMART'
p5512
sg43
F77.0
sbsg57
g5509
sg58
I0
sg59
g10
sg60
I0
sg61
I0
sg62
I0
sg63
I0
sg64
I01
sg65
I0
sg13
I728
sg66
F77.0
sbag5499
ag0
(g46
g2
Ntp5513
Rp5514
(dp5515
g12
I0
sg50
I0
sg14
I00
sg15
g51
sg52
I0
sg53
S'COF'
p5516
sg55
g56
sg19
g0
(g20
g2
Ntp5517
Rp5518
(dp5519
g24
S'COF'
p5520
sg26
I229906488
sg27
S'100'
p5521
sg28
S'COF'
p5522
sg30
S'OPT'
p5523
sg32
I00
sg33
Nsg35
g78
sg36
S'20160520'
p5524
sg37
S'USD'
p5525
sg39
S'COF   160520P00078500'
p5526
sg41
S'SMART'
p5527
sg43
F78.5
sbsg57
g5524
sg58
I0
sg59
g10
sg60
I0
sg61
I0
sg62
I0
sg63
I0
sg64
I01
sg65
I0
sg13
I730
sg66
F78.5
sbag5514
ag0
(g46
g2
Ntp5528
Rp5529
(dp5530
g12
I0
sg50
I0
sg14
I00
sg15
g51
sg52
I0
sg53
S'COF'
p5531
sg55
g56
sg19
g0
(g20
g2
Ntp5532
Rp5533
(dp5534
g24
S'COF'
p5535
sg26
I229906493
sg27
S'100'
p5536
sg28
S'COF'
p5537
sg30
S'OPT'
p5538
sg32
I00
sg33
Nsg35
g78
sg36
S'20160520'
p5539
sg37
S'USD'
p5540
sg39
S'COF   160520P00078000'
p5541
sg41
S'SMART'
p5542
sg43
F78.0
sbsg57
g5539
sg58
I0
sg59
g10
sg60
I0
sg61
I0
sg62
I0
sg63
I0
sg64
I01
sg65
I0
sg13
I732
sg66
F78.0
sbag5529
ag0
(g46
g2
Ntp5543
Rp5544
(dp5545
g12
I0
sg50
I0
sg14
I00
sg15
g51
sg52
I0
sg53
S'COF'
p5546
sg55
g56
sg19
g0
(g20
g2
Ntp5547
Rp5548
(dp5549
g24
S'COF'
p5550
sg26
I229906496
sg27
S'100'
p5551
sg28
S'COF'
p5552
sg30
S'OPT'
p5553
sg32
I00
sg33
Nsg35
g78
sg36
S'20160520'
p5554
sg37
S'USD'
p5555
sg39
S'COF   160520P00079000'
p5556
sg41
S'SMART'
p5557
sg43
F79.0
sbsg57
g5554
sg58
I0
sg59
g10
sg60
I0
sg61
I0
sg62
I0
sg63
I0
sg64
I01
sg65
I0
sg13
I734
sg66
F79.0
sbag5544
ag0
(g46
g2
Ntp5558
Rp5559
(dp5560
g12
I0
sg50
I0
sg14
I00
sg15
g51
sg52
I0
sg53
S'COF'
p5561
sg55
g56
sg19
g0
(g20
g2
Ntp5562
Rp5563
(dp5564
g24
S'COF'
p5565
sg26
I229906603
sg27
S'100'
p5566
sg28
S'COF'
p5567
sg30
S'OPT'
p5568
sg32
I00
sg33
Nsg35
g78
sg36
S'20161216'
p5569
sg37
S'USD'
p5570
sg39
S'COF   161216P00100000'
p5571
sg41
S'SMART'
p5572
sg43
F100.0
sbsg57
g5569
sg58
I0
sg59
g10
sg60
I0
sg61
I0
sg62
I0
sg63
I0
sg64
I01
sg65
I0
sg13
I736
sg66
F100.0
sbag5559
ag0
(g46
g2
Ntp5573
Rp5574
(dp5575
g12
I0
sg50
I0
sg14
I00
sg15
g51
sg52
I0
sg53
S'COF'
p5576
sg55
g56
sg19
g0
(g20
g2
Ntp5577
Rp5578
(dp5579
g24
S'COF'
p5580
sg26
I229906606
sg27
S'100'
p5581
sg28
S'COF'
p5582
sg30
S'OPT'
p5583
sg32
I00
sg33
Nsg35
g78
sg36
S'20161216'
p5584
sg37
S'USD'
p5585
sg39
S'COF   161216P00105000'
p5586
sg41
S'SMART'
p5587
sg43
F105.0
sbsg57
g5584
sg58
I0
sg59
g10
sg60
I0
sg61
I0
sg62
I0
sg63
I0
sg64
I01
sg65
I0
sg13
I738
sg66
F105.0
sbag5574
ag0
(g46
g2
Ntp5588
Rp5589
(dp5590
g12
I0
sg50
I0
sg14
I00
sg15
g51
sg52
I0
sg53
S'COF'
p5591
sg55
g56
sg19
g0
(g20
g2
Ntp5592
Rp5593
(dp5594
g24
S'COF'
p5595
sg26
I229906608
sg27
S'100'
p5596
sg28
S'COF'
p5597
sg30
S'OPT'
p5598
sg32
I00
sg33
Nsg35
g78
sg36
S'20161216'
p5599
sg37
S'USD'
p5600
sg39
S'COF   161216P00037500'
p5601
sg41
S'SMART'
p5602
sg43
F37.5
sbsg57
g5599
sg58
I0
sg59
g10
sg60
I0
sg61
I0
sg62
I0
sg63
I0
sg64
I01
sg65
I0
sg13
I740
sg66
F37.5
sbag5589
ag0
(g46
g2
Ntp5603
Rp5604
(dp5605
g12
I0
sg50
I0
sg14
I00
sg15
g51
sg52
I0
sg53
S'COF'
p5606
sg55
g56
sg19
g0
(g20
g2
Ntp5607
Rp5608
(dp5609
g24
S'COF'
p5610
sg26
I229906613
sg27
S'100'
p5611
sg28
S'COF'
p5612
sg30
S'OPT'
p5613
sg32
I00
sg33
Nsg35
g78
sg36
S'20161216'
p5614
sg37
S'USD'
p5615
sg39
S'COF   161216P00040000'
p5616
sg41
S'SMART'
p5617
sg43
F40.0
sbsg57
g5614
sg58
I0
sg59
g10
sg60
I0
sg61
I0
sg62
I0
sg63
I0
sg64
I01
sg65
I0
sg13
I742
sg66
F40.0
sbag5604
ag0
(g46
g2
Ntp5618
Rp5619
(dp5620
g12
I0
sg50
I0
sg14
I00
sg15
g51
sg52
I0
sg53
S'COF'
p5621
sg55
g56
sg19
g0
(g20
g2
Ntp5622
Rp5623
(dp5624
g24
S'COF'
p5625
sg26
I229906618
sg27
S'100'
p5626
sg28
S'COF'
p5627
sg30
S'OPT'
p5628
sg32
I00
sg33
Nsg35
g78
sg36
S'20161216'
p5629
sg37
S'USD'
p5630
sg39
S'COF   161216P00042500'
p5631
sg41
S'SMART'
p5632
sg43
F42.5
sbsg57
g5629
sg58
I0
sg59
g10
sg60
I0
sg61
I0
sg62
I0
sg63
I0
sg64
I01
sg65
I0
sg13
I744
sg66
F42.5
sbag5619
ag0
(g46
g2
Ntp5633
Rp5634
(dp5635
g12
I0
sg50
I0
sg14
I00
sg15
g51
sg52
I0
sg53
S'COF'
p5636
sg55
g56
sg19
g0
(g20
g2
Ntp5637
Rp5638
(dp5639
g24
S'COF'
p5640
sg26
I229906623
sg27
S'100'
p5641
sg28
S'COF'
p5642
sg30
S'OPT'
p5643
sg32
I00
sg33
Nsg35
g78
sg36
S'20161216'
p5644
sg37
S'USD'
p5645
sg39
S'COF   161216P00045000'
p5646
sg41
S'SMART'
p5647
sg43
F45.0
sbsg57
g5644
sg58
I0
sg59
g10
sg60
I0
sg61
I0
sg62
I0
sg63
I0
sg64
I01
sg65
I0
sg13
I746
sg66
F45.0
sbag5634
ag0
(g46
g2
Ntp5648
Rp5649
(dp5650
g12
I0
sg50
I0
sg14
I00
sg15
g51
sg52
I0
sg53
S'COF'
p5651
sg55
g56
sg19
g0
(g20
g2
Ntp5652
Rp5653
(dp5654
g24
S'COF'
p5655
sg26
I229906626
sg27
S'100'
p5656
sg28
S'COF'
p5657
sg30
S'OPT'
p5658
sg32
I00
sg33
Nsg35
g78
sg36
S'20161216'
p5659
sg37
S'USD'
p5660
sg39
S'COF   161216P00050000'
p5661
sg41
S'SMART'
p5662
sg43
F50.0
sbsg57
g5659
sg58
I0
sg59
g10
sg60
I0
sg61
I0
sg62
I0
sg63
I0
sg64
I01
sg65
I0
sg13
I748
sg66
F50.0
sbag5649
ag0
(g46
g2
Ntp5663
Rp5664
(dp5665
g12
I0
sg50
I0
sg14
I00
sg15
g51
sg52
I0
sg53
S'COF'
p5666
sg55
g56
sg19
g0
(g20
g2
Ntp5667
Rp5668
(dp5669
g24
S'COF'
p5670
sg26
I229906631
sg27
S'100'
p5671
sg28
S'COF'
p5672
sg30
S'OPT'
p5673
sg32
I00
sg33
Nsg35
g78
sg36
S'20161216'
p5674
sg37
S'USD'
p5675
sg39
S'COF   161216P00052500'
p5676
sg41
S'SMART'
p5677
sg43
F52.5
sbsg57
g5674
sg58
I0
sg59
g10
sg60
I0
sg61
I0
sg62
I0
sg63
I0
sg64
I01
sg65
I0
sg13
I750
sg66
F52.5
sbag5664
ag0
(g46
g2
Ntp5678
Rp5679
(dp5680
g12
I0
sg50
I0
sg14
I00
sg15
g51
sg52
I0
sg53
S'COF'
p5681
sg55
g56
sg19
g0
(g20
g2
Ntp5682
Rp5683
(dp5684
g24
S'COF'
p5685
sg26
I229906632
sg27
S'100'
p5686
sg28
S'COF'
p5687
sg30
S'OPT'
p5688
sg32
I00
sg33
Nsg35
g78
sg36
S'20161216'
p5689
sg37
S'USD'
p5690
sg39
S'COF   161216P00055000'
p5691
sg41
S'SMART'
p5692
sg43
F55.0
sbsg57
g5689
sg58
I0
sg59
g10
sg60
I0
sg61
I0
sg62
I0
sg63
I0
sg64
I01
sg65
I0
sg13
I752
sg66
F55.0
sbag5679
ag0
(g46
g2
Ntp5693
Rp5694
(dp5695
g12
I0
sg50
I0
sg14
I00
sg15
g51
sg52
I0
sg53
S'COF'
p5696
sg55
g56
sg19
g0
(g20
g2
Ntp5697
Rp5698
(dp5699
g24
S'COF'
p5700
sg26
I229906637
sg27
S'100'
p5701
sg28
S'COF'
p5702
sg30
S'OPT'
p5703
sg32
I00
sg33
Nsg35
g78
sg36
S'20161216'
p5704
sg37
S'USD'
p5705
sg39
S'COF   161216P00057500'
p5706
sg41
S'SMART'
p5707
sg43
F57.5
sbsg57
g5704
sg58
I0
sg59
g10
sg60
I0
sg61
I0
sg62
I0
sg63
I0
sg64
I01
sg65
I0
sg13
I754
sg66
F57.5
sbag5694
ag0
(g46
g2
Ntp5708
Rp5709
(dp5710
g12
I0
sg50
I0
sg14
I00
sg15
g51
sg52
I0
sg53
S'COF'
p5711
sg55
g56
sg19
g0
(g20
g2
Ntp5712
Rp5713
(dp5714
g24
S'COF'
p5715
sg26
I229906643
sg27
S'100'
p5716
sg28
S'COF'
p5717
sg30
S'OPT'
p5718
sg32
I00
sg33
Nsg35
g78
sg36
S'20161216'
p5719
sg37
S'USD'
p5720
sg39
S'COF   161216P00060000'
p5721
sg41
S'SMART'
p5722
sg43
F60.0
sbsg57
g5719
sg58
I0
sg59
g10
sg60
I0
sg61
I0
sg62
I0
sg63
I0
sg64
I01
sg65
I0
sg13
I756
sg66
F60.0
sbag5709
ag0
(g46
g2
Ntp5723
Rp5724
(dp5725
g12
I0
sg50
I0
sg14
I00
sg15
g51
sg52
I0
sg53
S'COF'
p5726
sg55
g56
sg19
g0
(g20
g2
Ntp5727
Rp5728
(dp5729
g24
S'COF'
p5730
sg26
I229906646
sg27
S'100'
p5731
sg28
S'COF'
p5732
sg30
S'OPT'
p5733
sg32
I00
sg33
Nsg35
g78
sg36
S'20161216'
p5734
sg37
S'USD'
p5735
sg39
S'COF   161216P00062500'
p5736
sg41
S'SMART'
p5737
sg43
F62.5
sbsg57
g5734
sg58
I0
sg59
g10
sg60
I0
sg61
I0
sg62
I0
sg63
I0
sg64
I01
sg65
I0
sg13
I758
sg66
F62.5
sbag5724
ag0
(g46
g2
Ntp5738
Rp5739
(dp5740
g12
I0
sg50
I0
sg14
I00
sg15
g51
sg52
I0
sg53
S'COF'
p5741
sg55
g56
sg19
g0
(g20
g2
Ntp5742
Rp5743
(dp5744
g24
S'COF'
p5745
sg26
I229906649
sg27
S'100'
p5746
sg28
S'COF'
p5747
sg30
S'OPT'
p5748
sg32
I00
sg33
Nsg35
g78
sg36
S'20161216'
p5749
sg37
S'USD'
p5750
sg39
S'COF   161216P00065000'
p5751
sg41
S'SMART'
p5752
sg43
F65.0
sbsg57
g5749
sg58
I0
sg59
g10
sg60
I0
sg61
I0
sg62
I0
sg63
I0
sg64
I01
sg65
I0
sg13
I760
sg66
F65.0
sbag5739
ag0
(g46
g2
Ntp5753
Rp5754
(dp5755
g12
I0
sg50
I0
sg14
I00
sg15
g51
sg52
I0
sg53
S'COF'
p5756
sg55
g56
sg19
g0
(g20
g2
Ntp5757
Rp5758
(dp5759
g24
S'COF'
p5760
sg26
I229906652
sg27
S'100'
p5761
sg28
S'COF'
p5762
sg30
S'OPT'
p5763
sg32
I00
sg33
Nsg35
g78
sg36
S'20161216'
p5764
sg37
S'USD'
p5765
sg39
S'COF   161216P00067500'
p5766
sg41
S'SMART'
p5767
sg43
F67.5
sbsg57
g5764
sg58
I0
sg59
g10
sg60
I0
sg61
I0
sg62
I0
sg63
I0
sg64
I01
sg65
I0
sg13
I762
sg66
F67.5
sbag5754
ag0
(g46
g2
Ntp5768
Rp5769
(dp5770
g12
I0
sg50
I0
sg14
I00
sg15
g51
sg52
I0
sg53
S'COF'
p5771
sg55
g56
sg19
g0
(g20
g2
Ntp5772
Rp5773
(dp5774
g24
S'COF'
p5775
sg26
I229906656
sg27
S'100'
p5776
sg28
S'COF'
p5777
sg30
S'OPT'
p5778
sg32
I00
sg33
Nsg35
g78
sg36
S'20161216'
p5779
sg37
S'USD'
p5780
sg39
S'COF   161216P00070000'
p5781
sg41
S'SMART'
p5782
sg43
F70.0
sbsg57
g5779
sg58
I0
sg59
g10
sg60
I0
sg61
I0
sg62
I0
sg63
I0
sg64
I01
sg65
I0
sg13
I764
sg66
F70.0
sbag5769
ag0
(g46
g2
Ntp5783
Rp5784
(dp5785
g12
I0
sg50
I0
sg14
I00
sg15
g51
sg52
I0
sg53
S'COF'
p5786
sg55
g56
sg19
g0
(g20
g2
Ntp5787
Rp5788
(dp5789
g24
S'COF'
p5790
sg26
I229906661
sg27
S'100'
p5791
sg28
S'COF'
p5792
sg30
S'OPT'
p5793
sg32
I00
sg33
Nsg35
g78
sg36
S'20161216'
p5794
sg37
S'USD'
p5795
sg39
S'COF   161216P00072500'
p5796
sg41
S'SMART'
p5797
sg43
F72.5
sbsg57
g5794
sg58
I0
sg59
g10
sg60
I0
sg61
I0
sg62
I0
sg63
I0
sg64
I01
sg65
I0
sg13
I766
sg66
F72.5
sbag5784
ag0
(g46
g2
Ntp5798
Rp5799
(dp5800
g12
I0
sg50
I0
sg14
I00
sg15
g51
sg52
I0
sg53
S'COF'
p5801
sg55
g56
sg19
g0
(g20
g2
Ntp5802
Rp5803
(dp5804
g24
S'COF'
p5805
sg26
I229906666
sg27
S'100'
p5806
sg28
S'COF'
p5807
sg30
S'OPT'
p5808
sg32
I00
sg33
Nsg35
g78
sg36
S'20161216'
p5809
sg37
S'USD'
p5810
sg39
S'COF   161216P00075000'
p5811
sg41
S'SMART'
p5812
sg43
F75.0
sbsg57
g5809
sg58
I0
sg59
g10
sg60
I0
sg61
I0
sg62
I0
sg63
I0
sg64
I01
sg65
I0
sg13
I768
sg66
F75.0
sbag5799
ag0
(g46
g2
Ntp5813
Rp5814
(dp5815
g12
I0
sg50
I0
sg14
I00
sg15
g51
sg52
I0
sg53
S'COF'
p5816
sg55
g56
sg19
g0
(g20
g2
Ntp5817
Rp5818
(dp5819
g24
S'COF'
p5820
sg26
I229906671
sg27
S'100'
p5821
sg28
S'COF'
p5822
sg30
S'OPT'
p5823
sg32
I00
sg33
Nsg35
g78
sg36
S'20161216'
p5824
sg37
S'USD'
p5825
sg39
S'COF   161216P00077500'
p5826
sg41
S'SMART'
p5827
sg43
F77.5
sbsg57
g5824
sg58
I0
sg59
g10
sg60
I0
sg61
I0
sg62
I0
sg63
I0
sg64
I01
sg65
I0
sg13
I770
sg66
F77.5
sbag5814
ag0
(g46
g2
Ntp5828
Rp5829
(dp5830
g12
I0
sg50
I0
sg14
I00
sg15
g51
sg52
I0
sg53
S'COF'
p5831
sg55
g56
sg19
g0
(g20
g2
Ntp5832
Rp5833
(dp5834
g24
S'COF'
p5835
sg26
I229906673
sg27
S'100'
p5836
sg28
S'COF'
p5837
sg30
S'OPT'
p5838
sg32
I00
sg33
Nsg35
g78
sg36
S'20161216'
p5839
sg37
S'USD'
p5840
sg39
S'COF   161216P00080000'
p5841
sg41
S'SMART'
p5842
sg43
F80.0
sbsg57
g5839
sg58
I0
sg59
g10
sg60
I0
sg61
I0
sg62
I0
sg63
I0
sg64
I01
sg65
I0
sg13
I772
sg66
F80.0
sbag5829
ag0
(g46
g2
Ntp5843
Rp5844
(dp5845
g12
I0
sg50
I0
sg14
I00
sg15
g51
sg52
I0
sg53
S'COF'
p5846
sg55
g56
sg19
g0
(g20
g2
Ntp5847
Rp5848
(dp5849
g24
S'COF'
p5850
sg26
I229906676
sg27
S'100'
p5851
sg28
S'COF'
p5852
sg30
S'OPT'
p5853
sg32
I00
sg33
Nsg35
g78
sg36
S'20161216'
p5854
sg37
S'USD'
p5855
sg39
S'COF   161216P00082500'
p5856
sg41
S'SMART'
p5857
sg43
F82.5
sbsg57
g5854
sg58
I0
sg59
g10
sg60
I0
sg61
I0
sg62
I0
sg63
I0
sg64
I01
sg65
I0
sg13
I774
sg66
F82.5
sbag5844
ag0
(g46
g2
Ntp5858
Rp5859
(dp5860
g12
I0
sg50
I0
sg14
I00
sg15
g51
sg52
I0
sg53
S'COF'
p5861
sg55
g56
sg19
g0
(g20
g2
Ntp5862
Rp5863
(dp5864
g24
S'COF'
p5865
sg26
I229906683
sg27
S'100'
p5866
sg28
S'COF'
p5867
sg30
S'OPT'
p5868
sg32
I00
sg33
Nsg35
g78
sg36
S'20161216'
p5869
sg37
S'USD'
p5870
sg39
S'COF   161216P00085000'
p5871
sg41
S'SMART'
p5872
sg43
F85.0
sbsg57
g5869
sg58
I0
sg59
g10
sg60
I0
sg61
I0
sg62
I0
sg63
I0
sg64
I01
sg65
I0
sg13
I776
sg66
F85.0
sbag5859
ag0
(g46
g2
Ntp5873
Rp5874
(dp5875
g12
I0
sg50
I0
sg14
I00
sg15
g51
sg52
I0
sg53
S'COF'
p5876
sg55
g56
sg19
g0
(g20
g2
Ntp5877
Rp5878
(dp5879
g24
S'COF'
p5880
sg26
I229906686
sg27
S'100'
p5881
sg28
S'COF'
p5882
sg30
S'OPT'
p5883
sg32
I00
sg33
Nsg35
g78
sg36
S'20161216'
p5884
sg37
S'USD'
p5885
sg39
S'COF   161216P00087500'
p5886
sg41
S'SMART'
p5887
sg43
F87.5
sbsg57
g5884
sg58
I0
sg59
g10
sg60
I0
sg61
I0
sg62
I0
sg63
I0
sg64
I01
sg65
I0
sg13
I778
sg66
F87.5
sbag5874
ag0
(g46
g2
Ntp5888
Rp5889
(dp5890
g12
I0
sg50
I0
sg14
I00
sg15
g51
sg52
I0
sg53
S'COF'
p5891
sg55
g56
sg19
g0
(g20
g2
Ntp5892
Rp5893
(dp5894
g24
S'COF'
p5895
sg26
I229906688
sg27
S'100'
p5896
sg28
S'COF'
p5897
sg30
S'OPT'
p5898
sg32
I00
sg33
Nsg35
g78
sg36
S'20161216'
p5899
sg37
S'USD'
p5900
sg39
S'COF   161216P00090000'
p5901
sg41
S'SMART'
p5902
sg43
F90.0
sbsg57
g5899
sg58
I0
sg59
g10
sg60
I0
sg61
I0
sg62
I0
sg63
I0
sg64
I01
sg65
I0
sg13
I780
sg66
F90.0
sbag5889
ag0
(g46
g2
Ntp5903
Rp5904
(dp5905
g12
I0
sg50
I0
sg14
I00
sg15
g51
sg52
I0
sg53
S'COF'
p5906
sg55
g56
sg19
g0
(g20
g2
Ntp5907
Rp5908
(dp5909
g24
S'COF'
p5910
sg26
I229906693
sg27
S'100'
p5911
sg28
S'COF'
p5912
sg30
S'OPT'
p5913
sg32
I00
sg33
Nsg35
g78
sg36
S'20161216'
p5914
sg37
S'USD'
p5915
sg39
S'COF   161216P00092500'
p5916
sg41
S'SMART'
p5917
sg43
F92.5
sbsg57
g5914
sg58
I0
sg59
g10
sg60
I0
sg61
I0
sg62
I0
sg63
I0
sg64
I01
sg65
I0
sg13
I782
sg66
F92.5
sbag5904
ag0
(g46
g2
Ntp5918
Rp5919
(dp5920
g12
I0
sg50
I0
sg14
I00
sg15
g51
sg52
I0
sg53
S'COF'
p5921
sg55
g56
sg19
g0
(g20
g2
Ntp5922
Rp5923
(dp5924
g24
S'COF'
p5925
sg26
I229906698
sg27
S'100'
p5926
sg28
S'COF'
p5927
sg30
S'OPT'
p5928
sg32
I00
sg33
Nsg35
g78
sg36
S'20161216'
p5929
sg37
S'USD'
p5930
sg39
S'COF   161216P00095000'
p5931
sg41
S'SMART'
p5932
sg43
F95.0
sbsg57
g5929
sg58
I0
sg59
g10
sg60
I0
sg61
I0
sg62
I0
sg63
I0
sg64
I01
sg65
I0
sg13
I784
sg66
F95.0
sbag5919
asg53
S'COF'
p5933
sg61
F71.34
sg62
F-1.0
sg63
I0
sS'historicalData'
p5934
(lp5935
sg65
F-1.0
sg64
I01
sbag0
(g8
g2
Ntp5936
Rp5937
(dp5938
g12
I0
sg13
I785
sg14
I00
sg15
S'STK'
p5939
sg17
S'Financial'
p5940
sg19
g0
(g20
g2
Ntp5941
Rp5942
(dp5943
g24
S'COF'
p5944
sg26
I5941
sg27
Nsg28
S'COF'
p5945
sg30
S'STK'
p5946
sg32
I00
sg33
S'NYSE'
p5947
sg35
Nsg36
Nsg37
S'USD'
p5948
sg39
S'COF'
p5949
sg41
S'SMART'
p5950
sg43
F0.0
sbsg44
(lp5951
g0
(g46
g2
Ntp5952
Rp5953
(dp5954
g12
I0
sg50
I0
sg14
I00
sg15
g51
sg52
I0
sg53
S'COF'
p5955
sg55
g56
sg19
g5942
sg57
Nsg58
I0
sg59
g5937
sg60
I0
sg61
I0
sg62
I0
sg63
I0
sg64
I01
sg65
I0
sg13
I787
sg66
F0.0
sbag5953
asg53
S'COF'
p5956
sg61
I0
sg62
I0
sg63
I0
sg5934
(lp5957
sg65
I0
sg64
I01
sbag0
(g8
g2
Ntp5958
Rp5959
(dp5960
g12
I0
sg13
I788
sg14
I00
sg15
S'STK'
p5961
sg17
Nsg19
g0
(g20
g2
Ntp5962
Rp5963
(dp5964
g26
I0
sg43
I0
sg32
I00
sbsg44
(lp5965
sg53
S'TSLA'
p5966
sg61
I0
sg62
I0
sg63
I0
sg5934
(lp5967
sg65
I0
sg64
I01
sbasb.